C51 COMPILER V9.03   CYDMAC                                                                07/02/2012 19:47:02 PAGE 1   


C51 COMPILER V9.03, COMPILATION OF MODULE CYDMAC
OBJECT MODULE PLACED IN .\DP8051_Keil_903\Debug\CyDmac.obj
COMPILER INVOKED BY: C:\Program Files (x86)\Cypress\PSoC Creator\2.1\PSoC Creator\import\keil\pk51\9.03\C51\BIN\c51.exe 
                    -.\Generated_Source\PSoC3\CyDmac.c NOIV LARGE MODDP2 OMF2 VB(1) PR(.\DP8051_Keil_903\Debug\CyDmac.lst) CD DB NOIP OT(0,SI
                    -ZE) INCDIR(Generated_Source\PSoC3) OJ(.\DP8051_Keil_903\Debug\CyDmac.obj)

line level    source

   1          /*******************************************************************************
   2          * File Name: CyDmac.c
   3          * Version 3.0
   4          *
   5          * Description:
   6          *  Provides an API for the DMAC component. The API includes functions for the
   7          *  DMA controller, DMA channels and Transfer Descriptors.
   8          *
   9          *  This API is the library version not the auto generated code that gets
  10          *  generated when the user places a DMA component on the schematic.
  11          *
  12          *  The auto generated code would use the APi's in this module.
  13          *
  14          * Note:
  15          *  This code is endian agnostic.
  16          *
  17          *  The Transfer Descriptor memory can be used as regular memory if the TD's are
  18          *  not being used.
  19          *
  20          *  This code uses the first byte of each TD to manage the free list of TD's.
  21          *  The user can over write this once the TD is allocated.
  22          *
  23          ********************************************************************************
  24          * Copyright 2008-2012, Cypress Semiconductor Corporation.  All rights reserved.
  25          * You may use this file only in accordance with the license, terms, conditions,
  26          * disclaimers, and limitations in the end user license agreement accompanying
  27          * the software package with which this file was provided.
  28          *******************************************************************************/
  29          
  30          #include "CyDmac.h"
  31          
  32          static uint8  CyDmaTdCurrentNumber;                      /* Current Number of free elements in the list */
  33          static uint8  CyDmaTdFreeIndex;                          /* Index of the first available TD */
  34          static uint32 CyDmaChannels = DMA_CHANNELS_USED__MASK0;  /* Bit map of DMA channel ownership */
  35          
  36          
  37          /*******************************************************************************
  38          * Function Name: CyDmacConfigure
  39          ********************************************************************************
  40          *
  41          * Summary:
  42          *  Creates a linked list of all the TDs to be allocated. This function is called
  43          *  by the startup code; you do not normally need to call it. You could call this
  44          *  function if all of the DMA channels are inactive.
  45          *
  46          * Parameters:
  47          *  None
  48          *
  49          * Return:
  50          *  None
  51          *
  52          *******************************************************************************/
  53          void CyDmacConfigure(void) 
C51 COMPILER V9.03   CYDMAC                                                                07/02/2012 19:47:02 PAGE 2   

  54          {
  55   1          uint8 index;
  56   1      
  57   1          /* Set TD list variables. */
  58   1          CyDmaTdFreeIndex     = CY_DMA_NUMBEROF_TDS - 1;
  59   1          CyDmaTdCurrentNumber = CY_DMA_NUMBEROF_TDS;
  60   1      
  61   1          /* Make TD free list. */
  62   1          for(index = CY_DMA_NUMBEROF_TDS - 1; index; index--)
  63   1          {
  64   2              CY_DMA_TDMEM_STRUCT_PTR[index].TD0[0] = index - 1;
  65   2          }
  66   1      
  67   1          /* Make the last one point to zero. */
  68   1          CY_DMA_TDMEM_STRUCT_PTR[index].TD0[0] = 0;
  69   1      }
  70          
  71          
  72          /*******************************************************************************
  73          * Function Name: CyDmacError
  74          ********************************************************************************
  75          *
  76          * Summary:
  77          *  Returns errors of the last failed DMA transaction.
  78          *
  79          * Parameters:
  80          *  None
  81          *
  82          * Return:
  83          *  Errors of the last failed DMA transaction.
  84          *
  85          *  DMAC_PERIPH_ERR:
  86          *   Set to 1 when a peripheral responds to a bus transaction with an error
  87          *   response.
  88          *
  89          *  DMAC_UNPOP_ACC:
  90          *   Set to 1 when an access is attempted to an invalid address.
  91          *
  92          *  DMAC_BUS_TIMEOUT:
  93          *   Set to 1 when a bus timeout occurs. Cleared by writing a 1. Timeout values
  94          *   are determined by the BUS_TIMEOUT field in the PHUBCFG register.
  95          *
  96          * Theory:
  97          *  Once an error occurs the error bits are sticky and are only cleared by a
  98          *  write 1 to the error register.
  99          *
 100          *******************************************************************************/
 101          uint8 CyDmacError(void) 
 102          {
 103   1          return(0x0Fu & *CY_DMA_ERR_PTR);
 104   1      }
 105          
 106          
 107          /*******************************************************************************
 108          * Function Name: CyDmacClearError
 109          ********************************************************************************
 110          *
 111          * Summary:
 112          *  Clears the error bits in the error register of the DMAC.
 113          *
 114          * Parameters:
 115          * error:
C51 COMPILER V9.03   CYDMAC                                                                07/02/2012 19:47:02 PAGE 3   

 116          *   Clears the error bits in the DMAC error register.
 117          *
 118          *  DMAC_PERIPH_ERR:
 119          *   Set to 1 when a peripheral responds to a bus transaction with an error
 120          *   response.
 121          *
 122          *  DMAC_UNPOP_ACC:
 123          *   Set to 1 when an access is attempted to an invalid address.
 124          *
 125          *  DMAC_BUS_TIMEOUT:
 126          *   Set to 1 when a bus timeout occurs. Cleared by writing a 1. Timeout values
 127          *   are determined by the BUS_TIMEOUT field in the PHUBCFG register.
 128          *
 129          * Return:
 130          *  None
 131          *
 132          * Theory:
 133          *  Once an error occurs the error bits are sticky and are only cleared by a
 134          *  write 1 to the error register.
 135          *
 136          *******************************************************************************/
 137          void CyDmacClearError(uint8 error) 
 138          {
 139   1          *CY_DMA_ERR_PTR = 0x0Fu & error;
 140   1      }
 141          
 142          
 143          /*******************************************************************************
 144          * Function Name: CyDmacErrorAddress
 145          ********************************************************************************
 146          *
 147          * Summary:
 148          *  When an DMAC_BUS_TIMEOUT, DMAC_UNPOP_ACC and DMAC_PERIPH_ERR occurs the
 149          *  address of the error is written to the error address register and can be read
 150          *  with this function.
 151          *
 152          *  If there are multiple errors, only the address of the first is saved.
 153          *
 154          * Parameters:
 155          *  None
 156          *
 157          * Return:
 158          *  The address that caused the error.
 159          *
 160          *******************************************************************************/
 161          uint32 CyDmacErrorAddress(void) 
 162          {
 163   1          return(CY_GET_REG32(CY_DMA_ERR_ADR_PTR));
 164   1      }
 165          
 166          
 167          /*******************************************************************************
 168          * Function Name: CyDmaChAlloc
 169          ********************************************************************************
 170          *
 171          * Summary:
 172          *  Allocates a channel from the DMAC to be used in all functions that require a
 173          *  channel handle.
 174          *
 175          * Parameters:
 176          *  None
 177          *
C51 COMPILER V9.03   CYDMAC                                                                07/02/2012 19:47:02 PAGE 4   

 178          * Return:
 179          *  The allocated channel number. Zero is a valid channel number.
 180          *  DMA_INVALID_CHANNEL is returned if there are no channels available.
 181          *
 182          *******************************************************************************/
 183          uint8 CyDmaChAlloc(void) 
 184          {
 185   1          uint8 interruptState;
 186   1          uint8 index;
 187   1          uint32 channel;
 188   1      
 189   1      
 190   1          /* Enter critical section! */
 191   1          interruptState = CyEnterCriticalSection();
 192   1      
 193   1          /* Look for a free channel. */
 194   1          for(index = 0, channel = 1; index < CY_DMA_NUMBEROF_CHANNELS; index++, channel <<= 1)
 195   1          {
 196   2              if(!(CyDmaChannels & channel))
 197   2              {
 198   3                  /* Mark the channel as used. */
 199   3                  CyDmaChannels |= channel;
 200   3                  break;
 201   3              }
 202   2          }
 203   1      
 204   1          if(index >= CY_DMA_NUMBEROF_CHANNELS)
 205   1          {
 206   2              index = CY_DMA_INVALID_CHANNEL;
 207   2          }
 208   1      
 209   1          /* Exit critical section! */
 210   1          CyExitCriticalSection(interruptState);
 211   1      
 212   1          return(index);
 213   1      }
 214          
 215          
 216          /*******************************************************************************
 217          * Function Name: CyDmaChFree
 218          ********************************************************************************
 219          *
 220          * Summary:
 221          *  Frees a channel allocated by DmaChAlloc().
 222          *
 223          * Parameters:
 224          *  uint8 chHandle:
 225          *   The handle previously returned by CyDmaChAlloc() or DMA_DmaInitalize().
 226          *
 227          * Return:
 228          *  CYRET_SUCCESS if successful.
 229          *  CYRET_BAD_PARAM if chHandle is invalid.
 230          *
 231          *******************************************************************************/
 232          cystatus CyDmaChFree(uint8 chHandle) 
 233          {
 234   1          cystatus status = CYRET_BAD_PARAM;
 235   1          uint8 interruptState;
 236   1      
 237   1          if(chHandle < CY_DMA_NUMBEROF_CHANNELS)
 238   1          {
 239   2              /* Enter critical section */
C51 COMPILER V9.03   CYDMAC                                                                07/02/2012 19:47:02 PAGE 5   

 240   2              interruptState = CyEnterCriticalSection();
 241   2      
 242   2              /* Clear the bit mask that keeps track of ownership. */
 243   2              CyDmaChannels &= ~(1 << chHandle);
 244   2      
 245   2              /* Exit critical section */
 246   2              CyExitCriticalSection(interruptState);
 247   2              status = CYRET_SUCCESS;
 248   2          }
 249   1      
 250   1          return(status);
 251   1      }
 252          
 253          
 254          /*******************************************************************************
 255          * Function Name: CyDmaChEnable
 256          ********************************************************************************
 257          *
 258          * Summary:
 259          *  Enables the DMA channel. A software or hardware request still must happen
 260          *  before the channel is executed.
 261          *
 262          * Parameters:
 263          *  uint8 chHandle:
 264          *   A handle previously returned by CyDmaChAlloc() or DMA_DmaInitalize().
 265          *
 266          *  uint8 preserveTds:
 267          *   Preserves the original TD state when the TD has completed. This parameter
 268          *   applies to all TDs in the channel.
 269          *
 270          *   0 - When a TD is completed, the DMAC leaves the TD configuration values in
 271          *   their current state, and does not restore them to their original state.
 272          *
 273          *   1 - When a TD is completed, the DMAC restores the original configuration
 274          *   values of the TD.
 275          *
 276          *  When preserveTds is set, the TD slot that equals the channel number becomes
 277          *  RESERVED and that becomes where the working registers exist. So, for example,
 278          *  if you are using CH06 and preserveTds is set, you are not allowed to use TD
 279          *  slot 6. That is reclaimed by the DMA engine for its private use.
 280          *
 281          *  Note Do not chain back to a completed TD if the preserveTds for the channel
 282          *  is set to 0. When a TD has completed preserveTds for the channel set to 0,
 283          *  the transfer count will be at 0. If a TD with a transfer count of 0 is
 284          *  started, the TD will transfer an indefinite amount of data.
 285          *
 286          *  Take extra precautions when using the hardware request (DRQ) option when the
 287          *  preserveTds is set to 0, as you might be requesting the wrong data.
 288          *
 289          * Return:
 290          *  CYRET_SUCCESS if successful.
 291          *  CYRET_BAD_PARAM if chHandle is invalid.
 292          *
 293          *******************************************************************************/
 294          cystatus CyDmaChEnable(uint8 chHandle, uint8 preserveTds) 
 295          {
 296   1          cystatus status = CYRET_BAD_PARAM;
 297   1      
 298   1          if(chHandle < CY_DMA_NUMBEROF_CHANNELS)
 299   1          {
 300   2              CY_DMA_CH_STRUCT_PTR[chHandle].basic_cfg[0] = (CY_DMA_CH_STRUCT_PTR[chHandle].basic_cfg[0] &  ~0x2
             -0u) | ((preserveTds) ? 0x21u:0x01u);
C51 COMPILER V9.03   CYDMAC                                                                07/02/2012 19:47:02 PAGE 6   

 301   2              status = CYRET_SUCCESS;
 302   2          }
 303   1      
 304   1          return(status);
 305   1      }
 306          
 307          
 308          /*******************************************************************************
 309          * Function Name: CyDmaChDisable
 310          ********************************************************************************
 311          *
 312          * Summary:
 313          *  Disables the DMA channel. Once this function is called, CyDmaChStatus() may
 314          *  be called to determine when the channel is disabled and which TDs were being
 315          *  executed.
 316          *
 317          *  If it is currently executing it will allow the current burst to finish
 318          *  naturally.
 319          *
 320          * Parameters:
 321          *  uint8 chHandle:
 322          *   A handle previously returned by CyDmaChAlloc() or DMA_DmaInitalize().
 323          *
 324          * Return:
 325          *  CYRET_SUCCESS if successful.
 326          *  CYRET_BAD_PARAM if chHandle is invalid.
 327          *
 328          *******************************************************************************/
 329          cystatus CyDmaChDisable(uint8 chHandle) 
 330          {
 331   1          cystatus status = CYRET_BAD_PARAM;
 332   1      
 333   1          if(chHandle < CY_DMA_NUMBEROF_CHANNELS)
 334   1          {
 335   2              CY_DMA_CH_STRUCT_PTR[chHandle].basic_cfg[0] &= ~0x21u;
 336   2              status = CYRET_SUCCESS;
 337   2          }
 338   1      
 339   1          return(status);
 340   1      }
 341          
 342          
 343          /*******************************************************************************
 344          * Function Name: CyDmaClearPendingDrq
 345          ********************************************************************************
 346          *
 347          * Summary:
 348          *  Clears pending DMA data request.
 349          *
 350          * Parameters:
 351          *  uint8 chHandle:
 352          *   Handle to the dma channel.
 353          *
 354          * Return:
 355          *  CYRET_SUCCESS if successful.
 356          *  CYRET_BAD_PARAM if chHandle is invalid.
 357          *
 358          *******************************************************************************/
 359          cystatus CyDmaClearPendingDrq(uint8 chHandle) 
 360          {
 361   1          cystatus status = CYRET_BAD_PARAM;
 362   1      
C51 COMPILER V9.03   CYDMAC                                                                07/02/2012 19:47:02 PAGE 7   

 363   1          if(chHandle < CY_DMA_NUMBEROF_CHANNELS)
 364   1          {
 365   2              CY_DMA_CH_STRUCT_PTR[chHandle].action[0] |= CY_DMA_CPU_TERM_CHAIN;
 366   2              CY_DMA_CH_STRUCT_PTR[chHandle].basic_cfg[0] |= 0x01u;
 367   2              status = CYRET_SUCCESS;
 368   2          }
 369   1      
 370   1          return(status);
 371   1      }
 372          
 373          
 374          /*******************************************************************************
 375          * Function Name: CyDmaChPriority
 376          ********************************************************************************
 377          *
 378          * Summary:
 379          *  Sets the priority of a DMA channel. You can use this function when you want
 380          *  to change the priority at run time. If the priority remains the same for a
 381          *  DMA channel, then you can configure the priority in the .cydwr file.
 382          *
 383          * Parameters:
 384          *  uint8 chHandle:
 385          *   A handle previously returned by CyDmaChAlloc() or DMA_DmaInitalize().
 386          *
 387          *  uint8 priority:
 388          *   Priority to set the channel to, 0 - 7.
 389          *
 390          * Return:
 391          *  CYRET_SUCCESS if successful.
 392          *  CYRET_BAD_PARAM if chHandle is invalid.
 393          *
 394          *******************************************************************************/
 395          cystatus CyDmaChPriority(uint8 chHandle, uint8 priority) 
 396          {
 397   1          uint8 value;
 398   1          cystatus status = CYRET_BAD_PARAM;
 399   1      
 400   1          if(chHandle < CY_DMA_NUMBEROF_CHANNELS)
 401   1          {
 402   2              value = CY_DMA_CH_STRUCT_PTR[chHandle].basic_cfg[0] & ~(0x0Eu);
 403   2              CY_DMA_CH_STRUCT_PTR[chHandle].basic_cfg[0] = value | ((priority & 0x7u) << 0x01u);
 404   2              status = CYRET_SUCCESS;
 405   2          }
 406   1      
 407   1          return(status);
 408   1      }
 409          
 410          
 411          /*******************************************************************************
 412          * Function Name: CyDmaChSetExtendedAddress
 413          ********************************************************************************
 414          *
 415          * Summary:
 416          *  Sets the high 16 bits of the source and destination addresses for the DMA
 417          *  channel (valid for all TDs in the chain).
 418          *
 419          * Parameters:
 420          *  uint8 chHandle:
 421          *   A handle previously returned by CyDmaChAlloc() or DMA_DmaInitalize().
 422          *
 423          *  uint16 source:
 424          *   Upper 16 bit address of the DMA transfer source.
C51 COMPILER V9.03   CYDMAC                                                                07/02/2012 19:47:02 PAGE 8   

 425          *
 426          *  uint16 destination:
 427          *   Upper 16 bit address of the DMA transfer destination.
 428          *
 429          * Return:
 430          *  CYRET_SUCCESS if successful.
 431          *  CYRET_BAD_PARAM if chHandle is invalid.
 432          *
 433          *******************************************************************************/
 434          cystatus CyDmaChSetExtendedAddress(uint8 chHandle, uint16 source, uint16 destination) \
 435              
 436          {
 437   1          cystatus status = CYRET_BAD_PARAM;
 438   1      
 439   1          #if(CY_PSOC5A)
              
                      /* 0x1FFF8000-0x1FFFFFFF needs to use alias at 0x20008000-0x2000FFFF */
                      if(source == 0x1FFF)
                      {
                          source = 0x2000;
                      }
              
                      if(destination == 0x1FFF)
                      {
                          destination = 0x2000;
                      }
              
                  #endif  /* (CY_PSOC5A) */
 453   1      
 454   1      
 455   1          if(chHandle < CY_DMA_NUMBEROF_CHANNELS)
 456   1          {
 457   2              /* Set source address */
 458   2              reg16 *convert = (reg16 *) &CY_DMA_CFGMEM_STRUCT_PTR[chHandle].CFG1[0];
 459   2              CY_SET_REG16(convert, source);
 460   2      
 461   2              /* Set destination address */
 462   2              CY_SET_REG16((reg16 *) &CY_DMA_CFGMEM_STRUCT_PTR[chHandle].CFG1[2], destination);
 463   2              status = CYRET_SUCCESS;
 464   2          }
 465   1      
 466   1          return(status);
 467   1      }
 468          
 469          
 470          /*******************************************************************************
 471          * Function Name: CyDmaChSetInitialTd
 472          ********************************************************************************
 473          *
 474          * Summary:
 475          *  Sets the initial TD to be executed for the channel when the CyDmaChEnable()
 476          *  function is called.
 477          *
 478          * Parameters:
 479          *  uint8 chHandle:
 480          *   A handle previously returned by CyDmaChAlloc() or DMA_DmaInitialize().
 481          *
 482          *  uint8 startTd:
 483          *   The index of TD to set as the first TD associated with the channel. Zero is
 484          *   a valid TD index.
 485          *
 486          * Return:
C51 COMPILER V9.03   CYDMAC                                                                07/02/2012 19:47:02 PAGE 9   

 487          *  CYRET_SUCCESS if successful.
 488          *  CYRET_BAD_PARAM if chHandle is invalid.
 489          *
 490          *******************************************************************************/
 491          cystatus CyDmaChSetInitialTd(uint8 chHandle, uint8 startTd) 
 492          {
 493   1          cystatus status = CYRET_BAD_PARAM;
 494   1      
 495   1          if(chHandle < CY_DMA_NUMBEROF_CHANNELS)
 496   1          {
 497   2              CY_DMA_CH_STRUCT_PTR[chHandle].basic_status[1u] = startTd;
 498   2              status = CYRET_SUCCESS;
 499   2          }
 500   1      
 501   1          return(status);
 502   1      }
 503          
 504          
 505          /*******************************************************************************
 506          * Function Name: CyDmaChSetRequest
 507          ********************************************************************************
 508          *
 509          * Summary:
 510          *  Allows the caller to terminate a chain of TDs, terminate one TD, or create a
 511          *  direct request to start the DMA channel.
 512          *
 513          * Parameters:
 514          *  uint8 chHandle:
 515          *   A handle previously returned by CyDmaChAlloc() or DMA_DmaInitalize().
 516          *
 517          *  uint8 request:
 518          *   One of the following constants. Each of the constants is a three-bit value.
 519          *
 520          *   CPU_REQ         - Create a direct request to start the DMA channel
 521          *   CPU_TERM_TD     - Terminate one TD
 522          *   CPU_TERM_CHAIN  - Terminate a chain of TDs
 523          *
 524          * Return:
 525          *  CYRET_SUCCESS if successful.
 526          *  CYRET_BAD_PARAM if chHandle is invalid.
 527          *
 528          *******************************************************************************/
 529          cystatus CyDmaChSetRequest(uint8 chHandle, uint8 request) 
 530          {
 531   1          cystatus status = CYRET_BAD_PARAM;
 532   1      
 533   1          if(chHandle < CY_DMA_NUMBEROF_CHANNELS)
 534   1          {
 535   2              CY_DMA_CH_STRUCT_PTR[chHandle].action[0u] |= (request & (CPU_REQ | CPU_TERM_TD | CPU_TERM_CHAIN));
 536   2              status = CYRET_SUCCESS;
 537   2          }
 538   1      
 539   1          return(status);
 540   1      }
 541          
 542          
 543          /*******************************************************************************
 544          * Function Name: CyDmaChGetRequest
 545          ********************************************************************************
 546          *
 547          * Summary:
 548          *  This function allows the caller of CyDmaChSetRequest() to determine if the
C51 COMPILER V9.03   CYDMAC                                                                07/02/2012 19:47:02 PAGE 10  

 549          *  request was completed.
 550          *
 551          * Parameters:
 552          *  uint8 chHandle:
 553          *   A handle previously returned by CyDmaChAlloc() or DMA_DmaInitalize().
 554          *
 555          * Return:
 556          *  Returns a three-bit field, corresponding to the three bits of the request,
 557          *  which describes the state of the previously posted request. If the value is
 558          *  zero, the request was completed. DMA_INVALID_CHANNEL if the handle is
 559          *  invalid.
 560          *
 561          *******************************************************************************/
 562          cystatus CyDmaChGetRequest(uint8 chHandle) 
 563          {
 564   1          cystatus status = DMA_INVALID_CHANNEL;
 565   1      
 566   1          if(chHandle < CY_DMA_NUMBEROF_CHANNELS)
 567   1          {
 568   2              status = CY_DMA_CH_STRUCT_PTR[chHandle].action[0u] & (CPU_REQ | CPU_TERM_TD | CPU_TERM_CHAIN);
 569   2          }
 570   1      
 571   1          return(status);
 572   1      }
 573          
 574          
 575          /*******************************************************************************
 576          * Function Name: CyDmaChStatus
 577          ********************************************************************************
 578          *
 579          * Summary:
 580          *  Determines the status of the DMA channel.
 581          *
 582          * Parameters:
 583          *  uint8 chHandle:
 584          *   A handle previously returned by CyDmaChAlloc() or DMA_DmaInitalize().
 585          *
 586          *  uint8 * currentTd:
 587          *   The address to store the index of the current TD. Can be NULL if the value
 588          *   is not needed.
 589          *
 590          *  uint8 * state:
 591          *   The address to store the state of the channel. Can be NULL if the value is
 592          *   not needed.
 593          *
 594          *   STATUS_TD_ACTIVE
 595          *    0: Channel is not currently being serviced by DMAC
 596          *    1: Channel is currently being serviced by DMAC
 597          *
 598          *   STATUS_CHAIN_ACTIVE
 599          *    0: TD chain is inactive; either no DMA requests have triggered a new chain
 600          *       or the previous chain has completed.
 601          *    1: TD chain has been triggered by a DMA request
 602          *
 603          * Return:
 604          *  CYRET_SUCCESS if successful.
 605          *  CYRET_BAD_PARAM if chHandle is invalid.
 606          *
 607          * Theory:
 608          *   The caller can check on the activity of the Current TD and the Chain.
 609          *
 610          *******************************************************************************/
C51 COMPILER V9.03   CYDMAC                                                                07/02/2012 19:47:02 PAGE 11  

 611          cystatus CyDmaChStatus(uint8 chHandle, uint8 * currentTd, uint8 * state) 
 612          {
 613   1          cystatus status = CYRET_BAD_PARAM;
 614   1      
 615   1          if(chHandle < CY_DMA_NUMBEROF_CHANNELS)
 616   1          {
 617   2              if(NULL != currentTd)
 618   2              {
 619   3                  *currentTd = CY_DMA_CH_STRUCT_PTR[chHandle].basic_status[1] & 0x7Fu;
 620   3              }
 621   2      
 622   2              if(NULL != state)
 623   2              {
 624   3                  *state= CY_DMA_CH_STRUCT_PTR[chHandle].basic_status[0];
 625   3              }
 626   2      
 627   2              status = CYRET_SUCCESS;
 628   2          }
 629   1      
 630   1          return (status);
 631   1      }
 632          
 633          
 634          /*******************************************************************************
 635          * Function Name: CyDmaChSetConfiguration
 636          ********************************************************************************
 637          *
 638          * Summary:
 639          * Sets configuration information of the channel.
 640          *
 641          * Parameters:
 642          *  uint8 chHandle:
 643          *   A handle previously returned by CyDmaChAlloc() or DMA_DmaInitialize().
 644          *
 645          *  uint8 burstCount:
 646          *   Specifies the size of bursts (1 to 127) the data transfer should be divided
 647          *   into. If this value is zero then the whole transfer is done in one burst.
 648          *
 649          *  uint8 requestPerBurst:
 650          *   The whole of the data can be split into multiple bursts, if this is
 651          *   required to complete the transaction:
 652          *    0: All subsequent bursts after the first burst will be automatically
 653          *       requested and carried out
 654          *    1: All subsequent bursts after the first burst must also be individually
 655          *       requested.
 656          *
 657          *  uint8 tdDone0:
 658          *   Selects one of the TERMOUT0 interrupt lines to signal completion. The line
 659          *   connected to the nrq terminal will determine the TERMOUT0_SEL definition and
 660          *   should be used as supplied by cyfitter.h
 661          *
 662          *  uint8 tdDone1:
 663          *   Selects one of the TERMOUT1 interrupt lines to signal completion. The line
 664          *   connected to the nrq terminal will determine the TERMOUT1_SEL definition and
 665          *   should be used as supplied by cyfitter.h
 666          *
 667          *  uint8 tdStop:
 668          *   Selects one of the TERMIN interrupt lines to signal to the DMAC that the TD
 669          *   should terminate. The signal connected to the trq terminal will determine
 670          *   which TERMIN (termination request) is used.
 671          *
 672          * Return:
C51 COMPILER V9.03   CYDMAC                                                                07/02/2012 19:47:02 PAGE 12  

 673          *  CYRET_SUCCESS if successful.
 674          *  CYRET_BAD_PARAM if chHandle is invalid.
 675          *
 676          *******************************************************************************/
 677          cystatus CyDmaChSetConfiguration(uint8 chHandle, uint8 burstCount, uint8 requestPerBurst,
 678                                           uint8 tdDone0, uint8 tdDone1, uint8 tdStop) 
 679          {
 680   1          cystatus status = CYRET_BAD_PARAM;
 681   1      
 682   1          if(chHandle < CY_DMA_NUMBEROF_CHANNELS)
 683   1          {
 684   2              CY_DMA_CFGMEM_STRUCT_PTR[chHandle].CFG0[0] = (burstCount & 0x7Fu) | ((requestPerBurst & 0x1u) << 7
             -);
 685   2              CY_DMA_CFGMEM_STRUCT_PTR[chHandle].CFG0[1] = ((tdDone1 & 0xFu) << 4) | (tdDone0 & 0xFu);
 686   2              CY_DMA_CFGMEM_STRUCT_PTR[chHandle].CFG0[2] = 0x0Fu & tdStop;
 687   2              CY_DMA_CFGMEM_STRUCT_PTR[chHandle].CFG0[3] = 0; /* burstcount_remain. */
 688   2      
 689   2              status = CYRET_SUCCESS;
 690   2          }
 691   1      
 692   1          return (status);
 693   1      }
 694          
 695          
 696          /*******************************************************************************
 697          * Function Name: CyDmaTdAllocate
 698          ********************************************************************************
 699          *
 700          * Summary:
 701          *  Allocates a TD for use with an allocated DMA channel.
 702          *
 703          * Parameters:
 704          *  None
 705          *
 706          * Return:
 707          *  Zero-based index of the TD to be used by the caller. Since there are 128 TDs
 708          *  minus the reserved TDs (0 to 23), the value returned would range from 24 to
 709          *  127 not 24 to 128. DMA_INVALID_TD is returned if there are no free TDs
 710          *  available.
 711          *
 712          *******************************************************************************/
 713          uint8 CyDmaTdAllocate(void) 
 714          {
 715   1          uint8 interruptState;
 716   1          uint8 element = CY_DMA_INVALID_TD;
 717   1      
 718   1          /* Enter critical section! */
 719   1          interruptState = CyEnterCriticalSection();
 720   1      
 721   1          if(CyDmaTdCurrentNumber > NUMBEROF_CHANNELS)
 722   1          {
 723   2              /* Get pointer to the Next available. */
 724   2              element = CyDmaTdFreeIndex;
 725   2      
 726   2              /* Decrement the count. */
 727   2              CyDmaTdCurrentNumber--;
 728   2      
 729   2              /* Update the next available pointer. */
 730   2              CyDmaTdFreeIndex = CY_DMA_TDMEM_STRUCT_PTR[element].TD0[0];
 731   2          }
 732   1      
 733   1          /* Exit critical section! */
C51 COMPILER V9.03   CYDMAC                                                                07/02/2012 19:47:02 PAGE 13  

 734   1          CyExitCriticalSection(interruptState);
 735   1      
 736   1          return(element);
 737   1      }
 738          
 739          
 740          /*******************************************************************************
 741          * Function Name: CyDmaTdFree
 742          ********************************************************************************
 743          *
 744          * Summary:
 745          *  Returns a TD to the free list.
 746          *
 747          * Parameters:
 748          *  uint8 tdHandle:
 749          *   The TD handle returned by the CyDmaTdAllocate().
 750          *
 751          * Return:
 752          *  None
 753          *
 754          *******************************************************************************/
 755          void CyDmaTdFree(uint8 tdHandle) 
 756          {
 757   1          if(tdHandle < NUMBEROF_TDS)
 758   1          {
 759   2              /* Enter critical section! */
 760   2              uint8 interruptState = CyEnterCriticalSection();
 761   2      
 762   2              /* Get pointer to the Next available. */
 763   2              CY_DMA_TDMEM_STRUCT_PTR[tdHandle].TD0[0u] = CyDmaTdFreeIndex;
 764   2      
 765   2              /* Set new Next Available. */
 766   2              CyDmaTdFreeIndex = tdHandle;
 767   2      
 768   2              /* Keep track of how many left. */
 769   2              CyDmaTdCurrentNumber++;
 770   2      
 771   2              /* Exit critical section! */
 772   2              CyExitCriticalSection(interruptState);
 773   2          }
 774   1      }
 775          
 776          
 777          /*******************************************************************************
 778          * Function Name: CyDmaTdFreeCount
 779          ********************************************************************************
 780          *
 781          * Summary:
 782          *  Returns the number of free TDs available to be allocated.
 783          *
 784          * Parameters:
 785          *  None
 786          *
 787          * Return:
 788          *  The number of free TDs.
 789          *
 790          *******************************************************************************/
 791          uint8 CyDmaTdFreeCount(void) 
 792          {
 793   1          return(CyDmaTdCurrentNumber - CY_DMA_NUMBEROF_CHANNELS);
 794   1      }
 795          
C51 COMPILER V9.03   CYDMAC                                                                07/02/2012 19:47:02 PAGE 14  

 796          
 797          /*******************************************************************************
 798          * Function Name: CyDmaTdSetConfiguration
 799          ********************************************************************************
 800          *
 801          * Summary:
 802          *  Configures the TD.
 803          *
 804          * Parameters:
 805          *  uint8 tdHandle:
 806          *   A handle previously returned by CyDmaTdAlloc().
 807          *
 808          *  uint16 transferCount:
 809          *   The size of the data transfer (in bytes) for this TD. A size of zero will
 810          *   cause the transfer to continue indefinitely. This parameter is limited to
 811          *   4095 bytes; the TD is not initialized at all when a higher value is passed.
 812          *
 813          *  uint8 nextTd:
 814          *   Zero based index of the next Transfer Descriptor in the TD chain. Zero is a
 815          *   valid pointer to the next TD; DMA_END_CHAIN_TD is the end of the chain.
 816          *
 817          *  uint8 configuration:
 818          *   Stores the Bit field of configuration bits.
 819          *
 820          *   TD_SWAP_EN         - Perform endian swap
 821          *
 822          *   TD_SWAP_SIZE4      - Swap size = 4 bytes
 823          *
 824          *   TD_AUTO_EXEC_NEXT  - The next TD in the chain will trigger automatically
 825          *                        when the current TD completes.
 826          *
 827          *   TD_TERMIN_EN       - Terminate this TD if a positive edge on the trq input
 828          *                        line occurs. The positive edge must occur during a
 829          *                        burst. That is the only time the DMAC will listen for
 830          *                        it.
 831          *
 832          *   DMA__TD_TERMOUT_EN - When this TD completes, the TERMOUT signal will
 833          *                        generate a pulse. Note that this option is instance
 834          *                        specific with the instance name followed by two
 835          *                        underscores. In this example, the instance name is DMA.
 836          *
 837          *   TD_INC_DST_ADR     - Increment DST_ADR according to the size of each data
 838          *                        transaction in the burst.
 839          *
 840          *   TD_INC_SRC_ADR     - Increment SRC_ADR according to the size of each data
 841          *                        transaction in the burst.
 842          *
 843          * Return:
 844          *  CYRET_SUCCESS if successful.
 845          *  CYRET_BAD_PARAM if tdHandle or transferCount is invalid.
 846          *
 847          *******************************************************************************/
 848          cystatus CyDmaTdSetConfiguration(uint8 tdHandle, uint16 transferCount, uint8 nextTd, uint8 configuration) 
             -\
 849              
 850          {
 851   1          cystatus status = CYRET_BAD_PARAM;
 852   1      
 853   1          if(tdHandle < CY_DMA_NUMBEROF_TDS && !(0xF000u & transferCount))
 854   1          {
 855   2              /* Set 12 bits transfer count. */
 856   2              reg16 *convert = (reg16 *) &CY_DMA_TDMEM_STRUCT_PTR[tdHandle].TD0[0];
C51 COMPILER V9.03   CYDMAC                                                                07/02/2012 19:47:02 PAGE 15  

 857   2              CY_SET_REG16(convert, transferCount);
 858   2      
 859   2              /* Set Next TD pointer. */
 860   2              CY_DMA_TDMEM_STRUCT_PTR[tdHandle].TD0[2] = nextTd;
 861   2      
 862   2              /* Configure the TD */
 863   2              CY_DMA_TDMEM_STRUCT_PTR[tdHandle].TD0[3] = configuration;
 864   2      
 865   2              status = CYRET_SUCCESS;
 866   2          }
 867   1      
 868   1          return(status);
 869   1      }
 870          
 871          
 872          /*******************************************************************************
 873          * Function Name: CyDmaTdGetConfiguration
 874          ********************************************************************************
 875          *
 876          * Summary:
 877          *  Retrieves the configuration of the TD. If a NULL pointer is passed as a
 878          *  parameter, that parameter is skipped. You may request only the values you are
 879          *  interested in.
 880          *
 881          * Parameters:
 882          *  uint8 tdHandle:
 883          *   A handle previously returned by CyDmaTdAlloc().
 884          *
 885          *  uint16 * transferCount:
 886          *   The address to store the size of the data transfer (in bytes) for this TD.
 887          *   A size of zero could indicate that the TD has completed its transfer, or
 888          *   that the TD is doing an indefinite transfer.
 889          *
 890          *  uint8 * nextTd:
 891          *   The address to store the index of the next TD in the TD chain.
 892          *
 893          *  uint8 * configuration:
 894          *   The address to store the Bit field of configuration bits.
 895          *   See CyDmaTdSetConfiguration() function description.
 896          *
 897          * Return:
 898          *  CYRET_SUCCESS if successful.
 899          *  CYRET_BAD_PARAM if tdHandle is invalid.
 900          *
 901          * Side Effects:
 902          *  If a TD has a transfer count of N and is executed, the transfer count becomes
 903          *  0. If it is reexecuted, the Transfer count of zero will be interpreted as a
 904          *  request for indefinite transfer. Be careful when requesting a TD with a
 905          *  transfer count of zero.
 906          *
 907          *******************************************************************************/
 908          cystatus CyDmaTdGetConfiguration(uint8 tdHandle, uint16 * transferCount, uint8 * nextTd, uint8 * configura
             -tion) \
 909              
 910          {
 911   1          cystatus status = CYRET_BAD_PARAM;
 912   1      
 913   1          if(tdHandle < CY_DMA_NUMBEROF_TDS)
 914   1          {
 915   2              /* If we have a pointer */
 916   2              if(NULL != transferCount)
 917   2              {
C51 COMPILER V9.03   CYDMAC                                                                07/02/2012 19:47:02 PAGE 16  

 918   3                  /* Get the 12 bits of the transfer count */
 919   3                  reg16 *convert = (reg16 *) &CY_DMA_TDMEM_STRUCT_PTR[tdHandle].TD0[0];
 920   3                  *transferCount = 0x0FFFu & CY_GET_REG16(convert);
 921   3              }
 922   2      
 923   2              /* If we have a pointer */
 924   2              if(NULL != nextTd)
 925   2              {
 926   3                  /* Get the Next TD pointer */
 927   3                  *nextTd = CY_DMA_TDMEM_STRUCT_PTR[tdHandle].TD0[2u];
 928   3              }
 929   2      
 930   2              /* If we have a pointer */
 931   2              if(NULL != configuration)
 932   2              {
 933   3                  /* Get the configuration the TD */
 934   3                  *configuration = CY_DMA_TDMEM_STRUCT_PTR[tdHandle].TD0[3u];
 935   3              }
 936   2      
 937   2              status = CYRET_SUCCESS;
 938   2          }
 939   1      
 940   1          return(status);
 941   1      }
 942          
 943          
 944          /*******************************************************************************
 945          * Function Name: CyDmaTdSetAddress
 946          ********************************************************************************
 947          *
 948          * Summary:
 949          *  Sets the lower 16 bits of the source and destination addresses for this TD
 950          *  only.
 951          *
 952          * Parameters:
 953          *  uint8 tdHandle:
 954          *   A handle previously returned by CyDmaTdAlloc().
 955          *
 956          *  uint16 source:
 957          *   The lower 16 address bits of the source of the data transfer.
 958          *
 959          *  uint16 destination:
 960          *   The lower 16 address bits of the destination of the data transfer.
 961          *
 962          * Return:
 963          *  CYRET_SUCCESS if successful.
 964          *  CYRET_BAD_PARAM if tdHandle is invalid.
 965          *
 966          *******************************************************************************/
 967          cystatus CyDmaTdSetAddress(uint8 tdHandle, uint16 source, uint16 destination) 
 968          {
 969   1          cystatus status = CYRET_BAD_PARAM;
 970   1      
 971   1          if(tdHandle < CY_DMA_NUMBEROF_TDS)
 972   1          {
 973   2              /* Set source address */
 974   2              reg16 *convert = (reg16 *) &CY_DMA_TDMEM_STRUCT_PTR[tdHandle].TD1[0];
 975   2              CY_SET_REG16(convert, source);
 976   2      
 977   2              /* Set destination address */
 978   2              CY_SET_REG16((reg16 *) &CY_DMA_TDMEM_STRUCT_PTR[tdHandle].TD1[2], destination);
 979   2      
C51 COMPILER V9.03   CYDMAC                                                                07/02/2012 19:47:02 PAGE 17  

 980   2              status = CYRET_SUCCESS;
 981   2          }
 982   1      
 983   1          return(status);
 984   1      }
 985          
 986          
 987          /*******************************************************************************
 988          * Function Name: CyDmaTdGetAddress
 989          ********************************************************************************
 990          *
 991          * Summary:
 992          *  Retrieves the lower 16 bits of the source and/or destination addresses for
 993          *  this TD only. If NULL is passed for a pointer parameter, that value is
 994          *  skipped. You may request only the values of interest.
 995          *
 996          * Parameters:
 997          *  uint8 tdHandle:
 998          *   A handle previously returned by CyDmaTdAlloc().
 999          *
1000          *  uint16 * source:
1001          *   The address to store the lower 16 address bits of the source of the data
1002          *   transfer.
1003          *
1004          *  uint16 * destination:
1005          *   The address to store the lower 16 address bits of the destination of the
1006          *   data transfer.
1007          *
1008          * Return:
1009          *  CYRET_SUCCESS if successful.
1010          *  CYRET_BAD_PARAM if tdHandle is invalid.
1011          *
1012          *******************************************************************************/
1013          cystatus CyDmaTdGetAddress(uint8 tdHandle, uint16 * source, uint16 * destination) 
1014          {
1015   1          cystatus status = CYRET_BAD_PARAM;
1016   1      
1017   1          if(tdHandle < CY_DMA_NUMBEROF_TDS)
1018   1          {
1019   2              /* If we have a pointer. */
1020   2              if(NULL != source)
1021   2              {
1022   3                  /* Get source address */
1023   3                  reg16 *convert = (reg16 *) &CY_DMA_TDMEM_STRUCT_PTR[tdHandle].TD1[0];
1024   3                  *source = CY_GET_REG16(convert);
1025   3              }
1026   2      
1027   2              /* If we have a pointer. */
1028   2              if(NULL != destination)
1029   2              {
1030   3                  /* Get Destination address. */
1031   3                  *destination = CY_GET_REG16((reg16 *) &CY_DMA_TDMEM_STRUCT_PTR[tdHandle].TD1[2]);
1032   3              }
1033   2      
1034   2              status = CYRET_SUCCESS;
1035   2          }
1036   1      
1037   1          return(status);
1038   1      }
1039          
1040          
1041          /*******************************************************************************
C51 COMPILER V9.03   CYDMAC                                                                07/02/2012 19:47:02 PAGE 18  

1042          * Function Name: CyDmaChRoundRobin
1043          ********************************************************************************
1044          *
1045          * Summary:
1046          *  Either enables or disables the Round-Robin scheduling enforcement algorithm.
1047          *  Within a priority level a Round-Robin fairness algorithm is enforced.
1048          *
1049          * Parameters:
1050          *  uint8 chHandle:
1051          *   A handle previously returned by CyDmaChAlloc() or Dma_DmaInitialize().
1052          *
1053          *  uint8 enableRR:
1054          *   0: Disable Round-Robin fairness algorithm
1055          *   1: Enable Round-Robin fairness algorithm
1056          *
1057          * Return:
1058          *  CYRET_SUCCESS if successful.
1059          *  CYRET_BAD_PARAM if chHandle is invalid.
1060          *
1061          *******************************************************************************/
1062          cystatus CyDmaChRoundRobin(uint8 chHandle, uint8 enableRR) 
1063          {
1064   1          cystatus status = CYRET_BAD_PARAM;
1065   1      
1066   1          if(chHandle < CY_DMA_NUMBEROF_CHANNELS)
1067   1          {
1068   2              CY_DMA_CH_STRUCT_PTR[chHandle].basic_cfg[0] = \
1069   2                      (CY_DMA_CH_STRUCT_PTR[chHandle].basic_cfg[0] &  ~CY_DMA_ROUND_ROBIN_ENABLE) |
1070   2                      ((enableRR) ? CY_DMA_ROUND_ROBIN_ENABLE : ~CY_DMA_ROUND_ROBIN_ENABLE);
1071   2      
1072   2              status = CYRET_SUCCESS;
1073   2          }
1074   1      
1075   1          return(status);
1076   1      }
1077          
1078          
1079          /* [] END OF FILE */
C51 COMPILER V9.03   CYDMAC                                                                07/02/2012 19:47:02 PAGE 19  

ASSEMBLY LISTING OF GENERATED OBJECT CODE


             ; FUNCTION CyDmacConfigure (BEGIN)
                                           ; SOURCE LINE # 53
                                           ; SOURCE LINE # 54
                                           ; SOURCE LINE # 58
0000 900000      R     MOV     DPTR,#CyDmaTdFreeIndex
0003 747F              MOV     A,#07FH
0005 F0                MOVX    @DPTR,A
                                           ; SOURCE LINE # 59
0006 900000      R     MOV     DPTR,#CyDmaTdCurrentNumber
0009 7480              MOV     A,#080H
000B F0                MOVX    @DPTR,A
                                           ; SOURCE LINE # 62
000C 900000      R     MOV     DPTR,#index
000F 747F              MOV     A,#07FH
0011 F0                MOVX    @DPTR,A
0012         ?C0001:
0012 900000      R     MOV     DPTR,#index
0015 E0                MOVX    A,@DPTR
0016 FF                MOV     R7,A
0017 EF                MOV     A,R7
0018 6021              JZ      ?C0002
                                           ; SOURCE LINE # 63
                                           ; SOURCE LINE # 64
001A 900000      R     MOV     DPTR,#index
001D E0                MOVX    A,@DPTR
001E FF                MOV     R7,A
001F EF                MOV     A,R7
0020 14                DEC     A
0021 FF                MOV     R7,A
0022 900000      R     MOV     DPTR,#index
0025 E0                MOVX    A,@DPTR
0026 FE                MOV     R6,A
0027 75F008            MOV     B,#08H
002A EE                MOV     A,R6
002B 907800            MOV     DPTR,#07800H
002E 120000      E     LCALL   ?C?OFFXADD
0031 EF                MOV     A,R7
0032 F0                MOVX    @DPTR,A
                                           ; SOURCE LINE # 65
0033         ?C0003:
0033 900000      R     MOV     DPTR,#index
0036 E0                MOVX    A,@DPTR
0037 14                DEC     A
0038 F0                MOVX    @DPTR,A
0039 80D7              SJMP    ?C0001
003B         ?C0002:
                                           ; SOURCE LINE # 68
003B 900000      R     MOV     DPTR,#index
003E E0                MOVX    A,@DPTR
003F FF                MOV     R7,A
0040 75F008            MOV     B,#08H
0043 EF                MOV     A,R7
0044 907800            MOV     DPTR,#07800H
0047 120000      E     LCALL   ?C?OFFXADD
004A E4                CLR     A
004B F0                MOVX    @DPTR,A
                                           ; SOURCE LINE # 69
004C         ?C0004:
004C 22                RET     
C51 COMPILER V9.03   CYDMAC                                                                07/02/2012 19:47:02 PAGE 20  

             ; FUNCTION CyDmacConfigure (END)

             ; FUNCTION CyDmacError (BEGIN)
                                           ; SOURCE LINE # 101
                                           ; SOURCE LINE # 102
                                           ; SOURCE LINE # 103
0000 907004            MOV     DPTR,#07004H
0003 120000      E     LCALL   ?C?LLDXDATA
0006 EF                MOV     A,R7
0007 540F              ANL     A,#0FH
0009 FF                MOV     R7,A
000A EE                MOV     A,R6
000B 5400              ANL     A,#00H
000D FE                MOV     R6,A
000E ED                MOV     A,R5
000F 5400              ANL     A,#00H
0011 FD                MOV     R5,A
0012 EC                MOV     A,R4
0013 5400              ANL     A,#00H
0015 FC                MOV     R4,A
                                           ; SOURCE LINE # 104
0016         ?C0005:
0016 22                RET     
             ; FUNCTION CyDmacError (END)

             ; FUNCTION _CyDmacClearError (BEGIN)
                                           ; SOURCE LINE # 137
0000 900000      R     MOV     DPTR,#error
0003 EF                MOV     A,R7
0004 F0                MOVX    @DPTR,A
                                           ; SOURCE LINE # 138
                                           ; SOURCE LINE # 139
0005 900000      R     MOV     DPTR,#error
0008 E0                MOVX    A,@DPTR
0009 FF                MOV     R7,A
000A EF                MOV     A,R7
000B 540F              ANL     A,#0FH
000D FF                MOV     R7,A
000E E4                CLR     A
000F FC                MOV     R4,A
0010 FD                MOV     R5,A
0011 FE                MOV     R6,A
0012 907004            MOV     DPTR,#07004H
0015 120000      E     LCALL   ?C?LSTXDATA
                                           ; SOURCE LINE # 140
0018         ?C0006:
0018 22                RET     
             ; FUNCTION _CyDmacClearError (END)

             ; FUNCTION CyDmacErrorAddress (BEGIN)
                                           ; SOURCE LINE # 161
                                           ; SOURCE LINE # 162
                                           ; SOURCE LINE # 163
0000 7B02              MOV     R3,#02H
0002 7A70              MOV     R2,#070H
0004 7908              MOV     R1,#08H
0006 120000      E     LCALL   _cyread32_nodpx
                                           ; SOURCE LINE # 164
0009         ?C0007:
0009 22                RET     
             ; FUNCTION CyDmacErrorAddress (END)

C51 COMPILER V9.03   CYDMAC                                                                07/02/2012 19:47:02 PAGE 21  

             ; FUNCTION CyDmaChAlloc (BEGIN)
                                           ; SOURCE LINE # 183
                                           ; SOURCE LINE # 184
                                           ; SOURCE LINE # 191
0000 120000      E     LCALL   CyEnterCriticalSection
0003 900000      R     MOV     DPTR,#interruptState
0006 EF                MOV     A,R7
0007 F0                MOVX    @DPTR,A
                                           ; SOURCE LINE # 194
0008 900000      R     MOV     DPTR,#index
000B E4                CLR     A
000C F0                MOVX    @DPTR,A
000D 7F01              MOV     R7,#01H
000F 7E00              MOV     R6,#00H
0011 7D00              MOV     R5,#00H
0013 7C00              MOV     R4,#00H
0015 900000      R     MOV     DPTR,#channel
0018 120000      E     LCALL   ?C?LSTXDATA
001B         ?C0008:
001B 900000      R     MOV     DPTR,#index
001E E0                MOVX    A,@DPTR
001F FF                MOV     R7,A
0020 EF                MOV     A,R7
0021 C3                CLR     C
0022 9418              SUBB    A,#018H
0024 5045              JNC     ?C0009
                                           ; SOURCE LINE # 195
                                           ; SOURCE LINE # 196
0026 900000      R     MOV     DPTR,#channel
0029 120000      E     LCALL   ?C?LLDXDATA
002C 900000      R     MOV     DPTR,#CyDmaChannels
002F 120000      E     LCALL   ?C?LLDXDATA0
0032 120000      E     LCALL   ?C?LAND
0035 EC                MOV     A,R4
0036 4D                ORL     A,R5
0037 4E                ORL     A,R6
0038 4F                ORL     A,R7
0039 7017              JNZ     ?C0010
                                           ; SOURCE LINE # 197
                                           ; SOURCE LINE # 199
003B 900000      R     MOV     DPTR,#CyDmaChannels
003E 120000      E     LCALL   ?C?LLDXDATA
0041 900000      R     MOV     DPTR,#channel
0044 120000      E     LCALL   ?C?LLDXDATA0
0047 120000      E     LCALL   ?C?LOR
004A 900000      R     MOV     DPTR,#CyDmaChannels
004D 120000      E     LCALL   ?C?LSTXDATA
                                           ; SOURCE LINE # 200
0050 8019              SJMP    ?C0009
                                           ; SOURCE LINE # 201
0052         ?C0011:
                                           ; SOURCE LINE # 202
0052         ?C0010:
0052 900000      R     MOV     DPTR,#index
0055 E0                MOVX    A,@DPTR
0056 04                INC     A
0057 F0                MOVX    @DPTR,A
0058 900000      R     MOV     DPTR,#channel
005B 120000      E     LCALL   ?C?LLDXDATA
005E 7801              MOV     R0,#01H
0060 120000      E     LCALL   ?C?LSHL
0063 900000      R     MOV     DPTR,#channel
C51 COMPILER V9.03   CYDMAC                                                                07/02/2012 19:47:02 PAGE 22  

0066 120000      E     LCALL   ?C?LSTXDATA
0069 80B0              SJMP    ?C0008
006B         ?C0009:
                                           ; SOURCE LINE # 204
006B 900000      R     MOV     DPTR,#index
006E E0                MOVX    A,@DPTR
006F FF                MOV     R7,A
0070 EF                MOV     A,R7
0071 C3                CLR     C
0072 9418              SUBB    A,#018H
0074 4006              JC      ?C0012
                                           ; SOURCE LINE # 205
                                           ; SOURCE LINE # 206
0076 900000      R     MOV     DPTR,#index
0079 74FF              MOV     A,#0FFH
007B F0                MOVX    @DPTR,A
                                           ; SOURCE LINE # 207
007C         ?C0012:
                                           ; SOURCE LINE # 210
007C 900000      R     MOV     DPTR,#interruptState
007F E0                MOVX    A,@DPTR
0080 FF                MOV     R7,A
0081 120000      E     LCALL   _CyExitCriticalSection
                                           ; SOURCE LINE # 212
0084 900000      R     MOV     DPTR,#index
0087 E0                MOVX    A,@DPTR
0088 FF                MOV     R7,A
                                           ; SOURCE LINE # 213
0089         ?C0013:
0089 22                RET     
             ; FUNCTION CyDmaChAlloc (END)

             ; FUNCTION _CyDmaChFree (BEGIN)
                                           ; SOURCE LINE # 232
0000 900000      R     MOV     DPTR,#chHandle
0003 EF                MOV     A,R7
0004 F0                MOVX    @DPTR,A
                                           ; SOURCE LINE # 233
                                           ; SOURCE LINE # 234
0005 900000      R     MOV     DPTR,#status
0008 7401              MOV     A,#01H
000A F0                MOVX    @DPTR,A
                                           ; SOURCE LINE # 237
000B 900000      R     MOV     DPTR,#chHandle
000E E0                MOVX    A,@DPTR
000F FF                MOV     R7,A
0010 EF                MOV     A,R7
0011 C3                CLR     C
0012 9418              SUBB    A,#018H
0014 505A              JNC     ?C0014
                                           ; SOURCE LINE # 238
                                           ; SOURCE LINE # 240
0016 120000      E     LCALL   CyEnterCriticalSection
0019 900000      R     MOV     DPTR,#interruptState
001C EF                MOV     A,R7
001D F0                MOVX    @DPTR,A
                                           ; SOURCE LINE # 243
001E 900000      R     MOV     DPTR,#CyDmaChannels
0021 120000      E     LCALL   ?C?LLDXDATA
0024 C004              PUSH    AR4
0026 C005              PUSH    AR5
0028 C006              PUSH    AR6
C51 COMPILER V9.03   CYDMAC                                                                07/02/2012 19:47:02 PAGE 23  

002A C007              PUSH    AR7
002C 900000      R     MOV     DPTR,#chHandle
002F E0                MOVX    A,@DPTR
0030 FF                MOV     R7,A
0031 7401              MOV     A,#01H
0033 7E00              MOV     R6,#00H
0035 A807              MOV     R0,AR7
0037 08                INC     R0
0038 8005              SJMP    ?C0063
003A         ?C0062:
003A C3                CLR     C
003B 33                RLC     A
003C CE                XCH     A,R6
003D 33                RLC     A
003E CE                XCH     A,R6
003F         ?C0063:
003F D8F9              DJNZ    R0,?C0062
0041 FF                MOV     R7,A
0042 EF                MOV     A,R7
0043 F4                CPL     A
0044 FF                MOV     R7,A
0045 EE                MOV     A,R6
0046 F4                CPL     A
0047 FE                MOV     R6,A
0048 AB07              MOV     R3,AR7
004A AA06              MOV     R2,AR6
004C EA                MOV     A,R2
004D 33                RLC     A
004E 95E0              SUBB    A,ACC
0050 F9                MOV     R1,A
0051 F8                MOV     R0,A
0052 D007              POP     AR7
0054 D006              POP     AR6
0056 D005              POP     AR5
0058 D004              POP     AR4
005A 120000      E     LCALL   ?C?LAND
005D 900000      R     MOV     DPTR,#CyDmaChannels
0060 120000      E     LCALL   ?C?LSTXDATA
                                           ; SOURCE LINE # 246
0063 900000      R     MOV     DPTR,#interruptState
0066 E0                MOVX    A,@DPTR
0067 FF                MOV     R7,A
0068 120000      E     LCALL   _CyExitCriticalSection
                                           ; SOURCE LINE # 247
006B 900000      R     MOV     DPTR,#status
006E E4                CLR     A
006F F0                MOVX    @DPTR,A
                                           ; SOURCE LINE # 248
0070         ?C0014:
                                           ; SOURCE LINE # 250
0070 900000      R     MOV     DPTR,#status
0073 E0                MOVX    A,@DPTR
0074 FF                MOV     R7,A
                                           ; SOURCE LINE # 251
0075         ?C0015:
0075 22                RET     
             ; FUNCTION _CyDmaChFree (END)

             ; FUNCTION _CyDmaChEnable (BEGIN)
                                           ; SOURCE LINE # 294
0000 900000      R     MOV     DPTR,#chHandle
0003 EF                MOV     A,R7
C51 COMPILER V9.03   CYDMAC                                                                07/02/2012 19:47:02 PAGE 24  

0004 F0                MOVX    @DPTR,A
0005 900000      R     MOV     DPTR,#preserveTds
0008 ED                MOV     A,R5
0009 F0                MOVX    @DPTR,A
                                           ; SOURCE LINE # 295
                                           ; SOURCE LINE # 296
000A 900000      R     MOV     DPTR,#status
000D 7401              MOV     A,#01H
000F F0                MOVX    @DPTR,A
                                           ; SOURCE LINE # 298
0010 900000      R     MOV     DPTR,#chHandle
0013 E0                MOVX    A,@DPTR
0014 FF                MOV     R7,A
0015 EF                MOV     A,R7
0016 C3                CLR     C
0017 9418              SUBB    A,#018H
0019 503C              JNC     ?C0016
                                           ; SOURCE LINE # 299
                                           ; SOURCE LINE # 300
001B 900000      R     MOV     DPTR,#chHandle
001E E0                MOVX    A,@DPTR
001F FF                MOV     R7,A
0020 75F010            MOV     B,#010H
0023 EF                MOV     A,R7
0024 907010            MOV     DPTR,#07010H
0027 120000      E     LCALL   ?C?OFFXADD
002A E0                MOVX    A,@DPTR
002B FF                MOV     R7,A
002C EF                MOV     A,R7
002D 54DF              ANL     A,#0DFH
002F FF                MOV     R7,A
0030 900000      R     MOV     DPTR,#preserveTds
0033 E0                MOVX    A,@DPTR
0034 FE                MOV     R6,A
0035 EE                MOV     A,R6
0036 6004              JZ      ?C0017
0038 7E21              MOV     R6,#021H
003A 8002              SJMP    ?C0018
003C         ?C0017:
003C 7E01              MOV     R6,#01H
003E         ?C0018:
003E EF                MOV     A,R7
003F 4E                ORL     A,R6
0040 FF                MOV     R7,A
0041 900000      R     MOV     DPTR,#chHandle
0044 E0                MOVX    A,@DPTR
0045 FE                MOV     R6,A
0046 75F010            MOV     B,#010H
0049 EE                MOV     A,R6
004A 907010            MOV     DPTR,#07010H
004D 120000      E     LCALL   ?C?OFFXADD
0050 EF                MOV     A,R7
0051 F0                MOVX    @DPTR,A
                                           ; SOURCE LINE # 301
0052 900000      R     MOV     DPTR,#status
0055 E4                CLR     A
0056 F0                MOVX    @DPTR,A
                                           ; SOURCE LINE # 302
0057         ?C0016:
                                           ; SOURCE LINE # 304
0057 900000      R     MOV     DPTR,#status
005A E0                MOVX    A,@DPTR
C51 COMPILER V9.03   CYDMAC                                                                07/02/2012 19:47:02 PAGE 25  

005B FF                MOV     R7,A
                                           ; SOURCE LINE # 305
005C         ?C0019:
005C 22                RET     
             ; FUNCTION _CyDmaChEnable (END)

             ; FUNCTION _CyDmaChDisable (BEGIN)
                                           ; SOURCE LINE # 329
0000 900000      R     MOV     DPTR,#chHandle
0003 EF                MOV     A,R7
0004 F0                MOVX    @DPTR,A
                                           ; SOURCE LINE # 330
                                           ; SOURCE LINE # 331
0005 900000      R     MOV     DPTR,#status
0008 7401              MOV     A,#01H
000A F0                MOVX    @DPTR,A
                                           ; SOURCE LINE # 333
000B 900000      R     MOV     DPTR,#chHandle
000E E0                MOVX    A,@DPTR
000F FF                MOV     R7,A
0010 EF                MOV     A,R7
0011 C3                CLR     C
0012 9418              SUBB    A,#018H
0014 501C              JNC     ?C0020
                                           ; SOURCE LINE # 334
                                           ; SOURCE LINE # 335
0016 900000      R     MOV     DPTR,#chHandle
0019 E0                MOVX    A,@DPTR
001A FF                MOV     R7,A
001B 75F010            MOV     B,#010H
001E EF                MOV     A,R7
001F 907010            MOV     DPTR,#07010H
0022 120000      E     LCALL   ?C?OFFXADD
0025 E0                MOVX    A,@DPTR
0026 FF                MOV     R7,A
0027 EF                MOV     A,R7
0028 54DE              ANL     A,#0DEH
002A FF                MOV     R7,A
002B EF                MOV     A,R7
002C F0                MOVX    @DPTR,A
                                           ; SOURCE LINE # 336
002D 900000      R     MOV     DPTR,#status
0030 E4                CLR     A
0031 F0                MOVX    @DPTR,A
                                           ; SOURCE LINE # 337
0032         ?C0020:
                                           ; SOURCE LINE # 339
0032 900000      R     MOV     DPTR,#status
0035 E0                MOVX    A,@DPTR
0036 FF                MOV     R7,A
                                           ; SOURCE LINE # 340
0037         ?C0021:
0037 22                RET     
             ; FUNCTION _CyDmaChDisable (END)

             ; FUNCTION _CyDmaClearPendingDrq (BEGIN)
                                           ; SOURCE LINE # 359
0000 900000      R     MOV     DPTR,#chHandle
0003 EF                MOV     A,R7
0004 F0                MOVX    @DPTR,A
                                           ; SOURCE LINE # 360
                                           ; SOURCE LINE # 361
C51 COMPILER V9.03   CYDMAC                                                                07/02/2012 19:47:02 PAGE 26  

0005 900000      R     MOV     DPTR,#status
0008 7401              MOV     A,#01H
000A F0                MOVX    @DPTR,A
                                           ; SOURCE LINE # 363
000B 900000      R     MOV     DPTR,#chHandle
000E E0                MOVX    A,@DPTR
000F FF                MOV     R7,A
0010 EF                MOV     A,R7
0011 C3                CLR     C
0012 9418              SUBB    A,#018H
0014 5033              JNC     ?C0022
                                           ; SOURCE LINE # 364
                                           ; SOURCE LINE # 365
0016 900000      R     MOV     DPTR,#chHandle
0019 E0                MOVX    A,@DPTR
001A FF                MOV     R7,A
001B 75F010            MOV     B,#010H
001E EF                MOV     A,R7
001F 907014            MOV     DPTR,#07014H
0022 120000      E     LCALL   ?C?OFFXADD
0025 E0                MOVX    A,@DPTR
0026 FF                MOV     R7,A
0027 EF                MOV     A,R7
0028 4404              ORL     A,#04H
002A FF                MOV     R7,A
002B EF                MOV     A,R7
002C F0                MOVX    @DPTR,A
                                           ; SOURCE LINE # 366
002D 900000      R     MOV     DPTR,#chHandle
0030 E0                MOVX    A,@DPTR
0031 FF                MOV     R7,A
0032 75F010            MOV     B,#010H
0035 EF                MOV     A,R7
0036 907010            MOV     DPTR,#07010H
0039 120000      E     LCALL   ?C?OFFXADD
003C E0                MOVX    A,@DPTR
003D FF                MOV     R7,A
003E EF                MOV     A,R7
003F 4401              ORL     A,#01H
0041 FF                MOV     R7,A
0042 EF                MOV     A,R7
0043 F0                MOVX    @DPTR,A
                                           ; SOURCE LINE # 367
0044 900000      R     MOV     DPTR,#status
0047 E4                CLR     A
0048 F0                MOVX    @DPTR,A
                                           ; SOURCE LINE # 368
0049         ?C0022:
                                           ; SOURCE LINE # 370
0049 900000      R     MOV     DPTR,#status
004C E0                MOVX    A,@DPTR
004D FF                MOV     R7,A
                                           ; SOURCE LINE # 371
004E         ?C0023:
004E 22                RET     
             ; FUNCTION _CyDmaClearPendingDrq (END)

             ; FUNCTION _CyDmaChPriority (BEGIN)
                                           ; SOURCE LINE # 395
0000 900000      R     MOV     DPTR,#chHandle
0003 EF                MOV     A,R7
0004 F0                MOVX    @DPTR,A
C51 COMPILER V9.03   CYDMAC                                                                07/02/2012 19:47:02 PAGE 27  

0005 900000      R     MOV     DPTR,#priority
0008 ED                MOV     A,R5
0009 F0                MOVX    @DPTR,A
                                           ; SOURCE LINE # 396
                                           ; SOURCE LINE # 398
000A 900000      R     MOV     DPTR,#status
000D 7401              MOV     A,#01H
000F F0                MOVX    @DPTR,A
                                           ; SOURCE LINE # 400
0010 900000      R     MOV     DPTR,#chHandle
0013 E0                MOVX    A,@DPTR
0014 FF                MOV     R7,A
0015 EF                MOV     A,R7
0016 C3                CLR     C
0017 9418              SUBB    A,#018H
0019 5045              JNC     ?C0024
                                           ; SOURCE LINE # 401
                                           ; SOURCE LINE # 402
001B 900000      R     MOV     DPTR,#chHandle
001E E0                MOVX    A,@DPTR
001F FF                MOV     R7,A
0020 75F010            MOV     B,#010H
0023 EF                MOV     A,R7
0024 907010            MOV     DPTR,#07010H
0027 120000      E     LCALL   ?C?OFFXADD
002A E0                MOVX    A,@DPTR
002B FF                MOV     R7,A
002C EF                MOV     A,R7
002D 54F1              ANL     A,#0F1H
002F FF                MOV     R7,A
0030 900000      R     MOV     DPTR,#value
0033 EF                MOV     A,R7
0034 F0                MOVX    @DPTR,A
                                           ; SOURCE LINE # 403
0035 900000      R     MOV     DPTR,#priority
0038 E0                MOVX    A,@DPTR
0039 FF                MOV     R7,A
003A EF                MOV     A,R7
003B 5407              ANL     A,#07H
003D FF                MOV     R7,A
003E EF                MOV     A,R7
003F 25E0              ADD     A,ACC
0041 FF                MOV     R7,A
0042 900000      R     MOV     DPTR,#value
0045 E0                MOVX    A,@DPTR
0046 FE                MOV     R6,A
0047 EF                MOV     A,R7
0048 4E                ORL     A,R6
0049 FF                MOV     R7,A
004A 900000      R     MOV     DPTR,#chHandle
004D E0                MOVX    A,@DPTR
004E FE                MOV     R6,A
004F 75F010            MOV     B,#010H
0052 EE                MOV     A,R6
0053 907010            MOV     DPTR,#07010H
0056 120000      E     LCALL   ?C?OFFXADD
0059 EF                MOV     A,R7
005A F0                MOVX    @DPTR,A
                                           ; SOURCE LINE # 404
005B 900000      R     MOV     DPTR,#status
005E E4                CLR     A
005F F0                MOVX    @DPTR,A
C51 COMPILER V9.03   CYDMAC                                                                07/02/2012 19:47:02 PAGE 28  

                                           ; SOURCE LINE # 405
0060         ?C0024:
                                           ; SOURCE LINE # 407
0060 900000      R     MOV     DPTR,#status
0063 E0                MOVX    A,@DPTR
0064 FF                MOV     R7,A
                                           ; SOURCE LINE # 408
0065         ?C0025:
0065 22                RET     
             ; FUNCTION _CyDmaChPriority (END)

             ; FUNCTION _CyDmaChSetExtendedAddress (BEGIN)
                                           ; SOURCE LINE # 434
0000 900000      R     MOV     DPTR,#chHandle
0003 EF                MOV     A,R7
0004 F0                MOVX    @DPTR,A
0005 900000      R     MOV     DPTR,#source
0008 EC                MOV     A,R4
0009 F0                MOVX    @DPTR,A
000A A3                INC     DPTR
000B ED                MOV     A,R5
000C F0                MOVX    @DPTR,A
000D 900000      R     MOV     DPTR,#destination
0010 EA                MOV     A,R2
0011 F0                MOVX    @DPTR,A
0012 A3                INC     DPTR
0013 EB                MOV     A,R3
0014 F0                MOVX    @DPTR,A
                                           ; SOURCE LINE # 436
                                           ; SOURCE LINE # 437
0015 900000      R     MOV     DPTR,#status
0018 7401              MOV     A,#01H
001A F0                MOVX    @DPTR,A
                                           ; SOURCE LINE # 455
001B 900000      R     MOV     DPTR,#chHandle
001E E0                MOVX    A,@DPTR
001F FF                MOV     R7,A
0020 EF                MOV     A,R7
0021 C3                CLR     C
0022 9418              SUBB    A,#018H
0024 5063              JNC     ?C0026
                                           ; SOURCE LINE # 456
                                           ; SOURCE LINE # 458
0026 900000      R     MOV     DPTR,#chHandle
0029 E0                MOVX    A,@DPTR
002A FF                MOV     R7,A
002B 7E08              MOV     R6,#08H
002D EF                MOV     A,R7
002E 8EF0              MOV     B,R6
0030 A4                MUL     AB
0031 FF                MOV     R7,A
0032 AEF0              MOV     R6,B
0034 EF                MOV     A,R7
0035 2404              ADD     A,#04H
0037 FF                MOV     R7,A
0038 EE                MOV     A,R6
0039 3476              ADDC    A,#076H
003B FE                MOV     R6,A
003C 900000      R     MOV     DPTR,#convert
003F EE                MOV     A,R6
0040 F0                MOVX    @DPTR,A
0041 A3                INC     DPTR
C51 COMPILER V9.03   CYDMAC                                                                07/02/2012 19:47:02 PAGE 29  

0042 EF                MOV     A,R7
0043 F0                MOVX    @DPTR,A
                                           ; SOURCE LINE # 459
0044 900000      R     MOV     DPTR,#convert
0047 E0                MOVX    A,@DPTR
0048 FE                MOV     R6,A
0049 A3                INC     DPTR
004A E0                MOVX    A,@DPTR
004B FF                MOV     R7,A
004C AA06              MOV     R2,AR6
004E A907              MOV     R1,AR7
0050 7B01              MOV     R3,#01H
0052 900000      R     MOV     DPTR,#source
0055 E0                MOVX    A,@DPTR
0056 FC                MOV     R4,A
0057 A3                INC     DPTR
0058 E0                MOVX    A,@DPTR
0059 FD                MOV     R5,A
005A 120000      E     LCALL   _cywrite16_nodpx
                                           ; SOURCE LINE # 462
005D 900000      R     MOV     DPTR,#chHandle
0060 E0                MOVX    A,@DPTR
0061 FF                MOV     R7,A
0062 7E08              MOV     R6,#08H
0064 EF                MOV     A,R7
0065 8EF0              MOV     B,R6
0067 A4                MUL     AB
0068 FF                MOV     R7,A
0069 AEF0              MOV     R6,B
006B EF                MOV     A,R7
006C 2406              ADD     A,#06H
006E FF                MOV     R7,A
006F EE                MOV     A,R6
0070 3476              ADDC    A,#076H
0072 FE                MOV     R6,A
0073 AA06              MOV     R2,AR6
0075 A907              MOV     R1,AR7
0077 7B01              MOV     R3,#01H
0079 900000      R     MOV     DPTR,#destination
007C E0                MOVX    A,@DPTR
007D FC                MOV     R4,A
007E A3                INC     DPTR
007F E0                MOVX    A,@DPTR
0080 FD                MOV     R5,A
0081 120000      E     LCALL   _cywrite16_nodpx
                                           ; SOURCE LINE # 463
0084 900000      R     MOV     DPTR,#status
0087 E4                CLR     A
0088 F0                MOVX    @DPTR,A
                                           ; SOURCE LINE # 464
0089         ?C0026:
                                           ; SOURCE LINE # 466
0089 900000      R     MOV     DPTR,#status
008C E0                MOVX    A,@DPTR
008D FF                MOV     R7,A
                                           ; SOURCE LINE # 467
008E         ?C0027:
008E 22                RET     
             ; FUNCTION _CyDmaChSetExtendedAddress (END)

             ; FUNCTION _CyDmaChSetInitialTd (BEGIN)
                                           ; SOURCE LINE # 491
C51 COMPILER V9.03   CYDMAC                                                                07/02/2012 19:47:02 PAGE 30  

0000 900000      R     MOV     DPTR,#chHandle
0003 EF                MOV     A,R7
0004 F0                MOVX    @DPTR,A
0005 900000      R     MOV     DPTR,#startTd
0008 ED                MOV     A,R5
0009 F0                MOVX    @DPTR,A
                                           ; SOURCE LINE # 492
                                           ; SOURCE LINE # 493
000A 900000      R     MOV     DPTR,#status
000D 7401              MOV     A,#01H
000F F0                MOVX    @DPTR,A
                                           ; SOURCE LINE # 495
0010 900000      R     MOV     DPTR,#chHandle
0013 E0                MOVX    A,@DPTR
0014 FF                MOV     R7,A
0015 EF                MOV     A,R7
0016 C3                CLR     C
0017 9418              SUBB    A,#018H
0019 501B              JNC     ?C0028
                                           ; SOURCE LINE # 496
                                           ; SOURCE LINE # 497
001B 900000      R     MOV     DPTR,#startTd
001E E0                MOVX    A,@DPTR
001F FF                MOV     R7,A
0020 900000      R     MOV     DPTR,#chHandle
0023 E0                MOVX    A,@DPTR
0024 FE                MOV     R6,A
0025 75F010            MOV     B,#010H
0028 EE                MOV     A,R6
0029 907019            MOV     DPTR,#07019H
002C 120000      E     LCALL   ?C?OFFXADD
002F EF                MOV     A,R7
0030 F0                MOVX    @DPTR,A
                                           ; SOURCE LINE # 498
0031 900000      R     MOV     DPTR,#status
0034 E4                CLR     A
0035 F0                MOVX    @DPTR,A
                                           ; SOURCE LINE # 499
0036         ?C0028:
                                           ; SOURCE LINE # 501
0036 900000      R     MOV     DPTR,#status
0039 E0                MOVX    A,@DPTR
003A FF                MOV     R7,A
                                           ; SOURCE LINE # 502
003B         ?C0029:
003B 22                RET     
             ; FUNCTION _CyDmaChSetInitialTd (END)

             ; FUNCTION _CyDmaChSetRequest (BEGIN)
                                           ; SOURCE LINE # 529
0000 900000      R     MOV     DPTR,#chHandle
0003 EF                MOV     A,R7
0004 F0                MOVX    @DPTR,A
0005 900000      R     MOV     DPTR,#request
0008 ED                MOV     A,R5
0009 F0                MOVX    @DPTR,A
                                           ; SOURCE LINE # 530
                                           ; SOURCE LINE # 531
000A 900000      R     MOV     DPTR,#status
000D 7401              MOV     A,#01H
000F F0                MOVX    @DPTR,A
                                           ; SOURCE LINE # 533
C51 COMPILER V9.03   CYDMAC                                                                07/02/2012 19:47:02 PAGE 31  

0010 900000      R     MOV     DPTR,#chHandle
0013 E0                MOVX    A,@DPTR
0014 FF                MOV     R7,A
0015 EF                MOV     A,R7
0016 C3                CLR     C
0017 9418              SUBB    A,#018H
0019 502C              JNC     ?C0030
                                           ; SOURCE LINE # 534
                                           ; SOURCE LINE # 535
001B 900000      R     MOV     DPTR,#chHandle
001E E0                MOVX    A,@DPTR
001F FF                MOV     R7,A
0020 75F010            MOV     B,#010H
0023 EF                MOV     A,R7
0024 907014            MOV     DPTR,#07014H
0027 120000      E     LCALL   ?C?OFFXADD
002A C083              PUSH    DPH
002C C082              PUSH    DPL
002E E0                MOVX    A,@DPTR
002F FF                MOV     R7,A
0030 900000      R     MOV     DPTR,#request
0033 E0                MOVX    A,@DPTR
0034 FE                MOV     R6,A
0035 EE                MOV     A,R6
0036 5407              ANL     A,#07H
0038 FE                MOV     R6,A
0039 EF                MOV     A,R7
003A 4E                ORL     A,R6
003B FF                MOV     R7,A
003C D082              POP     DPL
003E D083              POP     DPH
0040 EF                MOV     A,R7
0041 F0                MOVX    @DPTR,A
                                           ; SOURCE LINE # 536
0042 900000      R     MOV     DPTR,#status
0045 E4                CLR     A
0046 F0                MOVX    @DPTR,A
                                           ; SOURCE LINE # 537
0047         ?C0030:
                                           ; SOURCE LINE # 539
0047 900000      R     MOV     DPTR,#status
004A E0                MOVX    A,@DPTR
004B FF                MOV     R7,A
                                           ; SOURCE LINE # 540
004C         ?C0031:
004C 22                RET     
             ; FUNCTION _CyDmaChSetRequest (END)

             ; FUNCTION _CyDmaChGetRequest (BEGIN)
                                           ; SOURCE LINE # 562
0000 900000      R     MOV     DPTR,#chHandle
0003 EF                MOV     A,R7
0004 F0                MOVX    @DPTR,A
                                           ; SOURCE LINE # 563
                                           ; SOURCE LINE # 564
0005 900000      R     MOV     DPTR,#status
0008 74FF              MOV     A,#0FFH
000A F0                MOVX    @DPTR,A
                                           ; SOURCE LINE # 566
000B 900000      R     MOV     DPTR,#chHandle
000E E0                MOVX    A,@DPTR
000F FF                MOV     R7,A
C51 COMPILER V9.03   CYDMAC                                                                07/02/2012 19:47:02 PAGE 32  

0010 EF                MOV     A,R7
0011 C3                CLR     C
0012 9418              SUBB    A,#018H
0014 501A              JNC     ?C0032
                                           ; SOURCE LINE # 567
                                           ; SOURCE LINE # 568
0016 900000      R     MOV     DPTR,#chHandle
0019 E0                MOVX    A,@DPTR
001A FF                MOV     R7,A
001B 75F010            MOV     B,#010H
001E EF                MOV     A,R7
001F 907014            MOV     DPTR,#07014H
0022 120000      E     LCALL   ?C?OFFXADD
0025 E0                MOVX    A,@DPTR
0026 FF                MOV     R7,A
0027 EF                MOV     A,R7
0028 5407              ANL     A,#07H
002A FF                MOV     R7,A
002B 900000      R     MOV     DPTR,#status
002E EF                MOV     A,R7
002F F0                MOVX    @DPTR,A
                                           ; SOURCE LINE # 569
0030         ?C0032:
                                           ; SOURCE LINE # 571
0030 900000      R     MOV     DPTR,#status
0033 E0                MOVX    A,@DPTR
0034 FF                MOV     R7,A
                                           ; SOURCE LINE # 572
0035         ?C0033:
0035 22                RET     
             ; FUNCTION _CyDmaChGetRequest (END)

             ; FUNCTION _CyDmaChStatus (BEGIN)
                                           ; SOURCE LINE # 611
0000 900000      R     MOV     DPTR,#chHandle
0003 EF                MOV     A,R7
0004 F0                MOVX    @DPTR,A
0005 900000      R     MOV     DPTR,#currentTd
0008 120000      E     LCALL   ?C?PSTXDATA
                                           ; SOURCE LINE # 612
                                           ; SOURCE LINE # 613
000B 900000      R     MOV     DPTR,#status
000E 7401              MOV     A,#01H
0010 F0                MOVX    @DPTR,A
                                           ; SOURCE LINE # 615
0011 900000      R     MOV     DPTR,#chHandle
0014 E0                MOVX    A,@DPTR
0015 FF                MOV     R7,A
0016 EF                MOV     A,R7
0017 C3                CLR     C
0018 9418              SUBB    A,#018H
001A 4003              JC      $ + 5H
001C 020000      R     LJMP    ?C0034
                                           ; SOURCE LINE # 616
                                           ; SOURCE LINE # 617
001F 7B00              MOV     R3,#00H
0021 7A00              MOV     R2,#00H
0023 7900              MOV     R1,#00H
0025 C003              PUSH    AR3
0027 C002              PUSH    AR2
0029 C001              PUSH    AR1
002B 900000      R     MOV     DPTR,#currentTd
C51 COMPILER V9.03   CYDMAC                                                                07/02/2012 19:47:02 PAGE 33  

002E 120000      E     LCALL   ?C?PLDXDATA
0031 D082              POP     DPL
0033 D083              POP     DPH
0035 D0E0              POP     ACC
0037 6B                XRL     A,R3
0038 7008              JNZ     ?C0064
003A E9                MOV     A,R1
003B 6582              XRL     A,DPL
003D 7003              JNZ     ?C0064
003F EA                MOV     A,R2
0040 6583              XRL     A,DPH
0042         ?C0064:
0042 601F              JZ      ?C0035
                                           ; SOURCE LINE # 618
                                           ; SOURCE LINE # 619
0044 900000      R     MOV     DPTR,#chHandle
0047 E0                MOVX    A,@DPTR
0048 FF                MOV     R7,A
0049 75F010            MOV     B,#010H
004C EF                MOV     A,R7
004D 907019            MOV     DPTR,#07019H
0050 120000      E     LCALL   ?C?OFFXADD
0053 E0                MOVX    A,@DPTR
0054 FF                MOV     R7,A
0055 EF                MOV     A,R7
0056 547F              ANL     A,#07FH
0058 FF                MOV     R7,A
0059 900000      R     MOV     DPTR,#currentTd
005C 120000      E     LCALL   ?C?PLDXDATA
005F EF                MOV     A,R7
0060 120000      E     LCALL   ?C?CSTPTR
                                           ; SOURCE LINE # 620
0063         ?C0035:
                                           ; SOURCE LINE # 622
0063 7B00              MOV     R3,#00H
0065 7A00              MOV     R2,#00H
0067 7900              MOV     R1,#00H
0069 C003              PUSH    AR3
006B C002              PUSH    AR2
006D C001              PUSH    AR1
006F 900000      R     MOV     DPTR,#state
0072 120000      E     LCALL   ?C?PLDXDATA
0075 D082              POP     DPL
0077 D083              POP     DPH
0079 D0E0              POP     ACC
007B 6B                XRL     A,R3
007C 7008              JNZ     ?C0065
007E E9                MOV     A,R1
007F 6582              XRL     A,DPL
0081 7003              JNZ     ?C0065
0083 EA                MOV     A,R2
0084 6583              XRL     A,DPH
0086         ?C0065:
0086 601B              JZ      ?C0036
                                           ; SOURCE LINE # 623
                                           ; SOURCE LINE # 624
0088 900000      R     MOV     DPTR,#chHandle
008B E0                MOVX    A,@DPTR
008C FF                MOV     R7,A
008D 75F010            MOV     B,#010H
0090 EF                MOV     A,R7
0091 907018            MOV     DPTR,#07018H
C51 COMPILER V9.03   CYDMAC                                                                07/02/2012 19:47:02 PAGE 34  

0094 120000      E     LCALL   ?C?OFFXADD
0097 E0                MOVX    A,@DPTR
0098 FF                MOV     R7,A
0099 900000      R     MOV     DPTR,#state
009C 120000      E     LCALL   ?C?PLDXDATA
009F EF                MOV     A,R7
00A0 120000      E     LCALL   ?C?CSTPTR
                                           ; SOURCE LINE # 625
00A3         ?C0036:
                                           ; SOURCE LINE # 627
00A3 900000      R     MOV     DPTR,#status
00A6 E4                CLR     A
00A7 F0                MOVX    @DPTR,A
                                           ; SOURCE LINE # 628
00A8         ?C0034:
                                           ; SOURCE LINE # 630
00A8 900000      R     MOV     DPTR,#status
00AB E0                MOVX    A,@DPTR
00AC FF                MOV     R7,A
                                           ; SOURCE LINE # 631
00AD         ?C0037:
00AD 22                RET     
             ; FUNCTION _CyDmaChStatus (END)

             ; FUNCTION _CyDmaChSetConfiguration (BEGIN)
                                           ; SOURCE LINE # 677
0000 900000      R     MOV     DPTR,#chHandle
0003 EF                MOV     A,R7
0004 F0                MOVX    @DPTR,A
0005 900000      R     MOV     DPTR,#burstCount
0008 ED                MOV     A,R5
0009 F0                MOVX    @DPTR,A
000A 900000      R     MOV     DPTR,#requestPerBurst
000D EB                MOV     A,R3
000E F0                MOVX    @DPTR,A
                                           ; SOURCE LINE # 679
                                           ; SOURCE LINE # 680
000F 900000      R     MOV     DPTR,#status
0012 7401              MOV     A,#01H
0014 F0                MOVX    @DPTR,A
                                           ; SOURCE LINE # 682
0015 900000      R     MOV     DPTR,#chHandle
0018 E0                MOVX    A,@DPTR
0019 FF                MOV     R7,A
001A EF                MOV     A,R7
001B C3                CLR     C
001C 9418              SUBB    A,#018H
001E 4003              JC      $ + 5H
0020 020000      R     LJMP    ?C0038
                                           ; SOURCE LINE # 683
                                           ; SOURCE LINE # 684
0023 900000      R     MOV     DPTR,#requestPerBurst
0026 E0                MOVX    A,@DPTR
0027 FF                MOV     R7,A
0028 EF                MOV     A,R7
0029 5401              ANL     A,#01H
002B FF                MOV     R7,A
002C EF                MOV     A,R7
002D C4                SWAP    A
002E 33                RLC     A
002F 33                RLC     A
0030 33                RLC     A
C51 COMPILER V9.03   CYDMAC                                                                07/02/2012 19:47:02 PAGE 35  

0031 5480              ANL     A,#080H
0033 FF                MOV     R7,A
0034 900000      R     MOV     DPTR,#burstCount
0037 E0                MOVX    A,@DPTR
0038 FE                MOV     R6,A
0039 EE                MOV     A,R6
003A 547F              ANL     A,#07FH
003C FE                MOV     R6,A
003D EF                MOV     A,R7
003E 4E                ORL     A,R6
003F FF                MOV     R7,A
0040 900000      R     MOV     DPTR,#chHandle
0043 E0                MOVX    A,@DPTR
0044 FE                MOV     R6,A
0045 75F008            MOV     B,#08H
0048 EE                MOV     A,R6
0049 907600            MOV     DPTR,#07600H
004C 120000      E     LCALL   ?C?OFFXADD
004F EF                MOV     A,R7
0050 F0                MOVX    @DPTR,A
                                           ; SOURCE LINE # 685
0051 900000      R     MOV     DPTR,#tdDone1
0054 E0                MOVX    A,@DPTR
0055 FF                MOV     R7,A
0056 EF                MOV     A,R7
0057 540F              ANL     A,#0FH
0059 FF                MOV     R7,A
005A EF                MOV     A,R7
005B C4                SWAP    A
005C 54F0              ANL     A,#0F0H
005E FF                MOV     R7,A
005F 900000      R     MOV     DPTR,#tdDone0
0062 E0                MOVX    A,@DPTR
0063 FE                MOV     R6,A
0064 EE                MOV     A,R6
0065 540F              ANL     A,#0FH
0067 FE                MOV     R6,A
0068 EF                MOV     A,R7
0069 4E                ORL     A,R6
006A FF                MOV     R7,A
006B 900000      R     MOV     DPTR,#chHandle
006E E0                MOVX    A,@DPTR
006F FE                MOV     R6,A
0070 75F008            MOV     B,#08H
0073 EE                MOV     A,R6
0074 907601            MOV     DPTR,#07601H
0077 120000      E     LCALL   ?C?OFFXADD
007A EF                MOV     A,R7
007B F0                MOVX    @DPTR,A
                                           ; SOURCE LINE # 686
007C 900000      R     MOV     DPTR,#tdStop
007F E0                MOVX    A,@DPTR
0080 FF                MOV     R7,A
0081 EF                MOV     A,R7
0082 540F              ANL     A,#0FH
0084 FF                MOV     R7,A
0085 900000      R     MOV     DPTR,#chHandle
0088 E0                MOVX    A,@DPTR
0089 FE                MOV     R6,A
008A 75F008            MOV     B,#08H
008D EE                MOV     A,R6
008E 907602            MOV     DPTR,#07602H
C51 COMPILER V9.03   CYDMAC                                                                07/02/2012 19:47:02 PAGE 36  

0091 120000      E     LCALL   ?C?OFFXADD
0094 EF                MOV     A,R7
0095 F0                MOVX    @DPTR,A
                                           ; SOURCE LINE # 687
0096 900000      R     MOV     DPTR,#chHandle
0099 E0                MOVX    A,@DPTR
009A FF                MOV     R7,A
009B 75F008            MOV     B,#08H
009E EF                MOV     A,R7
009F 907603            MOV     DPTR,#07603H
00A2 120000      E     LCALL   ?C?OFFXADD
00A5 E4                CLR     A
00A6 F0                MOVX    @DPTR,A
                                           ; SOURCE LINE # 689
00A7 900000      R     MOV     DPTR,#status
00AA E4                CLR     A
00AB F0                MOVX    @DPTR,A
                                           ; SOURCE LINE # 690
00AC         ?C0038:
                                           ; SOURCE LINE # 692
00AC 900000      R     MOV     DPTR,#status
00AF E0                MOVX    A,@DPTR
00B0 FF                MOV     R7,A
                                           ; SOURCE LINE # 693
00B1         ?C0039:
00B1 22                RET     
             ; FUNCTION _CyDmaChSetConfiguration (END)

             ; FUNCTION CyDmaTdAllocate (BEGIN)
                                           ; SOURCE LINE # 713
                                           ; SOURCE LINE # 714
                                           ; SOURCE LINE # 716
0000 900000      R     MOV     DPTR,#element
0003 74FF              MOV     A,#0FFH
0005 F0                MOVX    @DPTR,A
                                           ; SOURCE LINE # 719
0006 120000      E     LCALL   CyEnterCriticalSection
0009 900000      R     MOV     DPTR,#interruptState
000C EF                MOV     A,R7
000D F0                MOVX    @DPTR,A
                                           ; SOURCE LINE # 721
000E 900000      R     MOV     DPTR,#CyDmaTdCurrentNumber
0011 E0                MOVX    A,@DPTR
0012 FF                MOV     R7,A
0013 EF                MOV     A,R7
0014 D3                SETB    C
0015 9418              SUBB    A,#018H
0017 4026              JC      ?C0040
                                           ; SOURCE LINE # 722
                                           ; SOURCE LINE # 724
0019 900000      R     MOV     DPTR,#CyDmaTdFreeIndex
001C E0                MOVX    A,@DPTR
001D FF                MOV     R7,A
001E 900000      R     MOV     DPTR,#element
0021 EF                MOV     A,R7
0022 F0                MOVX    @DPTR,A
                                           ; SOURCE LINE # 727
0023 900000      R     MOV     DPTR,#CyDmaTdCurrentNumber
0026 E0                MOVX    A,@DPTR
0027 14                DEC     A
0028 F0                MOVX    @DPTR,A
                                           ; SOURCE LINE # 730
C51 COMPILER V9.03   CYDMAC                                                                07/02/2012 19:47:02 PAGE 37  

0029 900000      R     MOV     DPTR,#element
002C E0                MOVX    A,@DPTR
002D FF                MOV     R7,A
002E 75F008            MOV     B,#08H
0031 EF                MOV     A,R7
0032 907800            MOV     DPTR,#07800H
0035 120000      E     LCALL   ?C?OFFXADD
0038 E0                MOVX    A,@DPTR
0039 FF                MOV     R7,A
003A 900000      R     MOV     DPTR,#CyDmaTdFreeIndex
003D EF                MOV     A,R7
003E F0                MOVX    @DPTR,A
                                           ; SOURCE LINE # 731
003F         ?C0040:
                                           ; SOURCE LINE # 734
003F 900000      R     MOV     DPTR,#interruptState
0042 E0                MOVX    A,@DPTR
0043 FF                MOV     R7,A
0044 120000      E     LCALL   _CyExitCriticalSection
                                           ; SOURCE LINE # 736
0047 900000      R     MOV     DPTR,#element
004A E0                MOVX    A,@DPTR
004B FF                MOV     R7,A
                                           ; SOURCE LINE # 737
004C         ?C0041:
004C 22                RET     
             ; FUNCTION CyDmaTdAllocate (END)

             ; FUNCTION _CyDmaTdFree (BEGIN)
                                           ; SOURCE LINE # 755
0000 900000      R     MOV     DPTR,#tdHandle
0003 EF                MOV     A,R7
0004 F0                MOVX    @DPTR,A
                                           ; SOURCE LINE # 756
                                           ; SOURCE LINE # 757
0005 900000      R     MOV     DPTR,#tdHandle
0008 E0                MOVX    A,@DPTR
0009 FF                MOV     R7,A
000A EF                MOV     A,R7
000B C3                CLR     C
000C 9480              SUBB    A,#080H
000E 5036              JNC     ?C0043
                                           ; SOURCE LINE # 758
                                           ; SOURCE LINE # 760
0010 120000      E     LCALL   CyEnterCriticalSection
0013 900000      R     MOV     DPTR,#interruptState
0016 EF                MOV     A,R7
0017 F0                MOVX    @DPTR,A
                                           ; SOURCE LINE # 763
0018 900000      R     MOV     DPTR,#CyDmaTdFreeIndex
001B E0                MOVX    A,@DPTR
001C FF                MOV     R7,A
001D 900000      R     MOV     DPTR,#tdHandle
0020 E0                MOVX    A,@DPTR
0021 FE                MOV     R6,A
0022 75F008            MOV     B,#08H
0025 EE                MOV     A,R6
0026 907800            MOV     DPTR,#07800H
0029 120000      E     LCALL   ?C?OFFXADD
002C EF                MOV     A,R7
002D F0                MOVX    @DPTR,A
                                           ; SOURCE LINE # 766
C51 COMPILER V9.03   CYDMAC                                                                07/02/2012 19:47:02 PAGE 38  

002E 900000      R     MOV     DPTR,#tdHandle
0031 E0                MOVX    A,@DPTR
0032 FF                MOV     R7,A
0033 900000      R     MOV     DPTR,#CyDmaTdFreeIndex
0036 EF                MOV     A,R7
0037 F0                MOVX    @DPTR,A
                                           ; SOURCE LINE # 769
0038 900000      R     MOV     DPTR,#CyDmaTdCurrentNumber
003B E0                MOVX    A,@DPTR
003C 04                INC     A
003D F0                MOVX    @DPTR,A
                                           ; SOURCE LINE # 772
003E 900000      R     MOV     DPTR,#interruptState
0041 E0                MOVX    A,@DPTR
0042 FF                MOV     R7,A
0043 120000      E     LCALL   _CyExitCriticalSection
                                           ; SOURCE LINE # 773
0046         ?C0042:
                                           ; SOURCE LINE # 774
0046         ?C0043:
0046 22                RET     
             ; FUNCTION _CyDmaTdFree (END)

             ; FUNCTION CyDmaTdFreeCount (BEGIN)
                                           ; SOURCE LINE # 791
                                           ; SOURCE LINE # 792
                                           ; SOURCE LINE # 793
0000 900000      R     MOV     DPTR,#CyDmaTdCurrentNumber
0003 E0                MOVX    A,@DPTR
0004 FF                MOV     R7,A
0005 C3                CLR     C
0006 EF                MOV     A,R7
0007 9418              SUBB    A,#018H
0009 FF                MOV     R7,A
                                           ; SOURCE LINE # 794
000A         ?C0044:
000A 22                RET     
             ; FUNCTION CyDmaTdFreeCount (END)

             ; FUNCTION _CyDmaTdSetConfiguration (BEGIN)
                                           ; SOURCE LINE # 848
0000 900000      R     MOV     DPTR,#tdHandle
0003 EF                MOV     A,R7
0004 F0                MOVX    @DPTR,A
0005 900000      R     MOV     DPTR,#transferCount
0008 EC                MOV     A,R4
0009 F0                MOVX    @DPTR,A
000A A3                INC     DPTR
000B ED                MOV     A,R5
000C F0                MOVX    @DPTR,A
000D 900000      R     MOV     DPTR,#nextTd
0010 EB                MOV     A,R3
0011 F0                MOVX    @DPTR,A
                                           ; SOURCE LINE # 850
                                           ; SOURCE LINE # 851
0012 900000      R     MOV     DPTR,#status
0015 7401              MOV     A,#01H
0017 F0                MOVX    @DPTR,A
                                           ; SOURCE LINE # 853
0018 900000      R     MOV     DPTR,#tdHandle
001B E0                MOVX    A,@DPTR
001C FF                MOV     R7,A
C51 COMPILER V9.03   CYDMAC                                                                07/02/2012 19:47:02 PAGE 39  

001D EF                MOV     A,R7
001E C3                CLR     C
001F 9480              SUBB    A,#080H
0021 507A              JNC     ?C0045
0023 900000      R     MOV     DPTR,#transferCount
0026 E0                MOVX    A,@DPTR
0027 FE                MOV     R6,A
0028 A3                INC     DPTR
0029 E0                MOVX    A,@DPTR
002A FF                MOV     R7,A
002B EE                MOV     A,R6
002C 54F0              ANL     A,#0F0H
002E FE                MOV     R6,A
002F 7F00              MOV     R7,#00H
0031 EF                MOV     A,R7
0032 4E                ORL     A,R6
0033 7068              JNZ     ?C0045
                                           ; SOURCE LINE # 854
                                           ; SOURCE LINE # 856
0035 900000      R     MOV     DPTR,#tdHandle
0038 E0                MOVX    A,@DPTR
0039 FF                MOV     R7,A
003A 7E08              MOV     R6,#08H
003C EF                MOV     A,R7
003D 8EF0              MOV     B,R6
003F A4                MUL     AB
0040 FF                MOV     R7,A
0041 AEF0              MOV     R6,B
0043 EF                MOV     A,R7
0044 2400              ADD     A,#00H
0046 FF                MOV     R7,A
0047 EE                MOV     A,R6
0048 3478              ADDC    A,#078H
004A FE                MOV     R6,A
004B 900000      R     MOV     DPTR,#convert
004E EE                MOV     A,R6
004F F0                MOVX    @DPTR,A
0050 A3                INC     DPTR
0051 EF                MOV     A,R7
0052 F0                MOVX    @DPTR,A
                                           ; SOURCE LINE # 857
0053 900000      R     MOV     DPTR,#convert
0056 E0                MOVX    A,@DPTR
0057 FE                MOV     R6,A
0058 A3                INC     DPTR
0059 E0                MOVX    A,@DPTR
005A FF                MOV     R7,A
005B AA06              MOV     R2,AR6
005D A907              MOV     R1,AR7
005F 7B01              MOV     R3,#01H
0061 900000      R     MOV     DPTR,#transferCount
0064 E0                MOVX    A,@DPTR
0065 FC                MOV     R4,A
0066 A3                INC     DPTR
0067 E0                MOVX    A,@DPTR
0068 FD                MOV     R5,A
0069 120000      E     LCALL   _cywrite16_nodpx
                                           ; SOURCE LINE # 860
006C 900000      R     MOV     DPTR,#nextTd
006F E0                MOVX    A,@DPTR
0070 FF                MOV     R7,A
0071 900000      R     MOV     DPTR,#tdHandle
C51 COMPILER V9.03   CYDMAC                                                                07/02/2012 19:47:02 PAGE 40  

0074 E0                MOVX    A,@DPTR
0075 FE                MOV     R6,A
0076 75F008            MOV     B,#08H
0079 EE                MOV     A,R6
007A 907802            MOV     DPTR,#07802H
007D 120000      E     LCALL   ?C?OFFXADD
0080 EF                MOV     A,R7
0081 F0                MOVX    @DPTR,A
                                           ; SOURCE LINE # 863
0082 900000      R     MOV     DPTR,#configuration
0085 E0                MOVX    A,@DPTR
0086 FF                MOV     R7,A
0087 900000      R     MOV     DPTR,#tdHandle
008A E0                MOVX    A,@DPTR
008B FE                MOV     R6,A
008C 75F008            MOV     B,#08H
008F EE                MOV     A,R6
0090 907803            MOV     DPTR,#07803H
0093 120000      E     LCALL   ?C?OFFXADD
0096 EF                MOV     A,R7
0097 F0                MOVX    @DPTR,A
                                           ; SOURCE LINE # 865
0098 900000      R     MOV     DPTR,#status
009B E4                CLR     A
009C F0                MOVX    @DPTR,A
                                           ; SOURCE LINE # 866
009D         ?C0045:
                                           ; SOURCE LINE # 868
009D 900000      R     MOV     DPTR,#status
00A0 E0                MOVX    A,@DPTR
00A1 FF                MOV     R7,A
                                           ; SOURCE LINE # 869
00A2         ?C0046:
00A2 22                RET     
             ; FUNCTION _CyDmaTdSetConfiguration (END)

             ; FUNCTION _CyDmaTdGetConfiguration (BEGIN)
                                           ; SOURCE LINE # 908
0000 900000      R     MOV     DPTR,#tdHandle
0003 EF                MOV     A,R7
0004 F0                MOVX    @DPTR,A
0005 900000      R     MOV     DPTR,#transferCount
0008 120000      E     LCALL   ?C?PSTXDATA
                                           ; SOURCE LINE # 910
                                           ; SOURCE LINE # 911
000B 900000      R     MOV     DPTR,#status
000E 7401              MOV     A,#01H
0010 F0                MOVX    @DPTR,A
                                           ; SOURCE LINE # 913
0011 900000      R     MOV     DPTR,#tdHandle
0014 E0                MOVX    A,@DPTR
0015 FF                MOV     R7,A
0016 EF                MOV     A,R7
0017 C3                CLR     C
0018 9480              SUBB    A,#080H
001A 4003              JC      $ + 5H
001C 020000      R     LJMP    ?C0047
                                           ; SOURCE LINE # 914
                                           ; SOURCE LINE # 916
001F 7B00              MOV     R3,#00H
0021 7A00              MOV     R2,#00H
0023 7900              MOV     R1,#00H
C51 COMPILER V9.03   CYDMAC                                                                07/02/2012 19:47:02 PAGE 41  

0025 C003              PUSH    AR3
0027 C002              PUSH    AR2
0029 C001              PUSH    AR1
002B 900000      R     MOV     DPTR,#transferCount
002E 120000      E     LCALL   ?C?PLDXDATA
0031 D082              POP     DPL
0033 D083              POP     DPH
0035 D0E0              POP     ACC
0037 6B                XRL     A,R3
0038 7008              JNZ     ?C0066
003A E9                MOV     A,R1
003B 6582              XRL     A,DPL
003D 7003              JNZ     ?C0066
003F EA                MOV     A,R2
0040 6583              XRL     A,DPH
0042         ?C0066:
0042 603F              JZ      ?C0048
                                           ; SOURCE LINE # 917
                                           ; SOURCE LINE # 919
0044 900000      R     MOV     DPTR,#tdHandle
0047 E0                MOVX    A,@DPTR
0048 FF                MOV     R7,A
0049 7E08              MOV     R6,#08H
004B EF                MOV     A,R7
004C 8EF0              MOV     B,R6
004E A4                MUL     AB
004F FF                MOV     R7,A
0050 AEF0              MOV     R6,B
0052 EF                MOV     A,R7
0053 2400              ADD     A,#00H
0055 FF                MOV     R7,A
0056 EE                MOV     A,R6
0057 3478              ADDC    A,#078H
0059 FE                MOV     R6,A
005A 900000      R     MOV     DPTR,#convert
005D EE                MOV     A,R6
005E F0                MOVX    @DPTR,A
005F A3                INC     DPTR
0060 EF                MOV     A,R7
0061 F0                MOVX    @DPTR,A
                                           ; SOURCE LINE # 920
0062 900000      R     MOV     DPTR,#convert
0065 E0                MOVX    A,@DPTR
0066 FE                MOV     R6,A
0067 A3                INC     DPTR
0068 E0                MOVX    A,@DPTR
0069 FF                MOV     R7,A
006A AA06              MOV     R2,AR6
006C A907              MOV     R1,AR7
006E 7B01              MOV     R3,#01H
0070 120000      E     LCALL   _cyread16_nodpx
0073 EE                MOV     A,R6
0074 540F              ANL     A,#0FH
0076 FE                MOV     R6,A
0077 900000      R     MOV     DPTR,#transferCount
007A 120000      E     LCALL   ?C?PLDXDATA
007D EE                MOV     A,R6
007E 8FF0              MOV     B,R7
0080 120000      E     LCALL   ?C?ISTPTR
                                           ; SOURCE LINE # 921
0083         ?C0048:
                                           ; SOURCE LINE # 924
C51 COMPILER V9.03   CYDMAC                                                                07/02/2012 19:47:02 PAGE 42  

0083 7B00              MOV     R3,#00H
0085 7A00              MOV     R2,#00H
0087 7900              MOV     R1,#00H
0089 C003              PUSH    AR3
008B C002              PUSH    AR2
008D C001              PUSH    AR1
008F 900000      R     MOV     DPTR,#nextTd
0092 120000      E     LCALL   ?C?PLDXDATA
0095 D082              POP     DPL
0097 D083              POP     DPH
0099 D0E0              POP     ACC
009B 6B                XRL     A,R3
009C 7008              JNZ     ?C0067
009E E9                MOV     A,R1
009F 6582              XRL     A,DPL
00A1 7003              JNZ     ?C0067
00A3 EA                MOV     A,R2
00A4 6583              XRL     A,DPH
00A6         ?C0067:
00A6 601B              JZ      ?C0049
                                           ; SOURCE LINE # 925
                                           ; SOURCE LINE # 927
00A8 900000      R     MOV     DPTR,#tdHandle
00AB E0                MOVX    A,@DPTR
00AC FF                MOV     R7,A
00AD 75F008            MOV     B,#08H
00B0 EF                MOV     A,R7
00B1 907802            MOV     DPTR,#07802H
00B4 120000      E     LCALL   ?C?OFFXADD
00B7 E0                MOVX    A,@DPTR
00B8 FF                MOV     R7,A
00B9 900000      R     MOV     DPTR,#nextTd
00BC 120000      E     LCALL   ?C?PLDXDATA
00BF EF                MOV     A,R7
00C0 120000      E     LCALL   ?C?CSTPTR
                                           ; SOURCE LINE # 928
00C3         ?C0049:
                                           ; SOURCE LINE # 931
00C3 7B00              MOV     R3,#00H
00C5 7A00              MOV     R2,#00H
00C7 7900              MOV     R1,#00H
00C9 C003              PUSH    AR3
00CB C002              PUSH    AR2
00CD C001              PUSH    AR1
00CF 900000      R     MOV     DPTR,#configuration
00D2 120000      E     LCALL   ?C?PLDXDATA
00D5 D082              POP     DPL
00D7 D083              POP     DPH
00D9 D0E0              POP     ACC
00DB 6B                XRL     A,R3
00DC 7008              JNZ     ?C0068
00DE E9                MOV     A,R1
00DF 6582              XRL     A,DPL
00E1 7003              JNZ     ?C0068
00E3 EA                MOV     A,R2
00E4 6583              XRL     A,DPH
00E6         ?C0068:
00E6 601B              JZ      ?C0050
                                           ; SOURCE LINE # 932
                                           ; SOURCE LINE # 934
00E8 900000      R     MOV     DPTR,#tdHandle
00EB E0                MOVX    A,@DPTR
C51 COMPILER V9.03   CYDMAC                                                                07/02/2012 19:47:02 PAGE 43  

00EC FF                MOV     R7,A
00ED 75F008            MOV     B,#08H
00F0 EF                MOV     A,R7
00F1 907803            MOV     DPTR,#07803H
00F4 120000      E     LCALL   ?C?OFFXADD
00F7 E0                MOVX    A,@DPTR
00F8 FF                MOV     R7,A
00F9 900000      R     MOV     DPTR,#configuration
00FC 120000      E     LCALL   ?C?PLDXDATA
00FF EF                MOV     A,R7
0100 120000      E     LCALL   ?C?CSTPTR
                                           ; SOURCE LINE # 935
0103         ?C0050:
                                           ; SOURCE LINE # 937
0103 900000      R     MOV     DPTR,#status
0106 E4                CLR     A
0107 F0                MOVX    @DPTR,A
                                           ; SOURCE LINE # 938
0108         ?C0047:
                                           ; SOURCE LINE # 940
0108 900000      R     MOV     DPTR,#status
010B E0                MOVX    A,@DPTR
010C FF                MOV     R7,A
                                           ; SOURCE LINE # 941
010D         ?C0051:
010D 22                RET     
             ; FUNCTION _CyDmaTdGetConfiguration (END)

             ; FUNCTION _CyDmaTdSetAddress (BEGIN)
                                           ; SOURCE LINE # 967
0000 900000      R     MOV     DPTR,#tdHandle
0003 EF                MOV     A,R7
0004 F0                MOVX    @DPTR,A
0005 900000      R     MOV     DPTR,#source
0008 EC                MOV     A,R4
0009 F0                MOVX    @DPTR,A
000A A3                INC     DPTR
000B ED                MOV     A,R5
000C F0                MOVX    @DPTR,A
000D 900000      R     MOV     DPTR,#destination
0010 EA                MOV     A,R2
0011 F0                MOVX    @DPTR,A
0012 A3                INC     DPTR
0013 EB                MOV     A,R3
0014 F0                MOVX    @DPTR,A
                                           ; SOURCE LINE # 968
                                           ; SOURCE LINE # 969
0015 900000      R     MOV     DPTR,#status
0018 7401              MOV     A,#01H
001A F0                MOVX    @DPTR,A
                                           ; SOURCE LINE # 971
001B 900000      R     MOV     DPTR,#tdHandle
001E E0                MOVX    A,@DPTR
001F FF                MOV     R7,A
0020 EF                MOV     A,R7
0021 C3                CLR     C
0022 9480              SUBB    A,#080H
0024 5063              JNC     ?C0052
                                           ; SOURCE LINE # 972
                                           ; SOURCE LINE # 974
0026 900000      R     MOV     DPTR,#tdHandle
0029 E0                MOVX    A,@DPTR
C51 COMPILER V9.03   CYDMAC                                                                07/02/2012 19:47:02 PAGE 44  

002A FF                MOV     R7,A
002B 7E08              MOV     R6,#08H
002D EF                MOV     A,R7
002E 8EF0              MOV     B,R6
0030 A4                MUL     AB
0031 FF                MOV     R7,A
0032 AEF0              MOV     R6,B
0034 EF                MOV     A,R7
0035 2404              ADD     A,#04H
0037 FF                MOV     R7,A
0038 EE                MOV     A,R6
0039 3478              ADDC    A,#078H
003B FE                MOV     R6,A
003C 900000      R     MOV     DPTR,#convert
003F EE                MOV     A,R6
0040 F0                MOVX    @DPTR,A
0041 A3                INC     DPTR
0042 EF                MOV     A,R7
0043 F0                MOVX    @DPTR,A
                                           ; SOURCE LINE # 975
0044 900000      R     MOV     DPTR,#convert
0047 E0                MOVX    A,@DPTR
0048 FE                MOV     R6,A
0049 A3                INC     DPTR
004A E0                MOVX    A,@DPTR
004B FF                MOV     R7,A
004C AA06              MOV     R2,AR6
004E A907              MOV     R1,AR7
0050 7B01              MOV     R3,#01H
0052 900000      R     MOV     DPTR,#source
0055 E0                MOVX    A,@DPTR
0056 FC                MOV     R4,A
0057 A3                INC     DPTR
0058 E0                MOVX    A,@DPTR
0059 FD                MOV     R5,A
005A 120000      E     LCALL   _cywrite16_nodpx
                                           ; SOURCE LINE # 978
005D 900000      R     MOV     DPTR,#tdHandle
0060 E0                MOVX    A,@DPTR
0061 FF                MOV     R7,A
0062 7E08              MOV     R6,#08H
0064 EF                MOV     A,R7
0065 8EF0              MOV     B,R6
0067 A4                MUL     AB
0068 FF                MOV     R7,A
0069 AEF0              MOV     R6,B
006B EF                MOV     A,R7
006C 2406              ADD     A,#06H
006E FF                MOV     R7,A
006F EE                MOV     A,R6
0070 3478              ADDC    A,#078H
0072 FE                MOV     R6,A
0073 AA06              MOV     R2,AR6
0075 A907              MOV     R1,AR7
0077 7B01              MOV     R3,#01H
0079 900000      R     MOV     DPTR,#destination
007C E0                MOVX    A,@DPTR
007D FC                MOV     R4,A
007E A3                INC     DPTR
007F E0                MOVX    A,@DPTR
0080 FD                MOV     R5,A
0081 120000      E     LCALL   _cywrite16_nodpx
C51 COMPILER V9.03   CYDMAC                                                                07/02/2012 19:47:02 PAGE 45  

                                           ; SOURCE LINE # 980
0084 900000      R     MOV     DPTR,#status
0087 E4                CLR     A
0088 F0                MOVX    @DPTR,A
                                           ; SOURCE LINE # 981
0089         ?C0052:
                                           ; SOURCE LINE # 983
0089 900000      R     MOV     DPTR,#status
008C E0                MOVX    A,@DPTR
008D FF                MOV     R7,A
                                           ; SOURCE LINE # 984
008E         ?C0053:
008E 22                RET     
             ; FUNCTION _CyDmaTdSetAddress (END)

             ; FUNCTION _CyDmaTdGetAddress (BEGIN)
                                           ; SOURCE LINE # 1013
0000 900000      R     MOV     DPTR,#tdHandle
0003 EF                MOV     A,R7
0004 F0                MOVX    @DPTR,A
0005 900000      R     MOV     DPTR,#source
0008 120000      E     LCALL   ?C?PSTXDATA
                                           ; SOURCE LINE # 1014
                                           ; SOURCE LINE # 1015
000B 900000      R     MOV     DPTR,#status
000E 7401              MOV     A,#01H
0010 F0                MOVX    @DPTR,A
                                           ; SOURCE LINE # 1017
0011 900000      R     MOV     DPTR,#tdHandle
0014 E0                MOVX    A,@DPTR
0015 FF                MOV     R7,A
0016 EF                MOV     A,R7
0017 C3                CLR     C
0018 9480              SUBB    A,#080H
001A 4003              JC      $ + 5H
001C 020000      R     LJMP    ?C0054
                                           ; SOURCE LINE # 1018
                                           ; SOURCE LINE # 1020
001F 7B00              MOV     R3,#00H
0021 7A00              MOV     R2,#00H
0023 7900              MOV     R1,#00H
0025 C003              PUSH    AR3
0027 C002              PUSH    AR2
0029 C001              PUSH    AR1
002B 900000      R     MOV     DPTR,#source
002E 120000      E     LCALL   ?C?PLDXDATA
0031 D082              POP     DPL
0033 D083              POP     DPH
0035 D0E0              POP     ACC
0037 6B                XRL     A,R3
0038 7008              JNZ     ?C0069
003A E9                MOV     A,R1
003B 6582              XRL     A,DPL
003D 7003              JNZ     ?C0069
003F EA                MOV     A,R2
0040 6583              XRL     A,DPH
0042         ?C0069:
0042 603B              JZ      ?C0055
                                           ; SOURCE LINE # 1021
                                           ; SOURCE LINE # 1023
0044 900000      R     MOV     DPTR,#tdHandle
0047 E0                MOVX    A,@DPTR
C51 COMPILER V9.03   CYDMAC                                                                07/02/2012 19:47:02 PAGE 46  

0048 FF                MOV     R7,A
0049 7E08              MOV     R6,#08H
004B EF                MOV     A,R7
004C 8EF0              MOV     B,R6
004E A4                MUL     AB
004F FF                MOV     R7,A
0050 AEF0              MOV     R6,B
0052 EF                MOV     A,R7
0053 2404              ADD     A,#04H
0055 FF                MOV     R7,A
0056 EE                MOV     A,R6
0057 3478              ADDC    A,#078H
0059 FE                MOV     R6,A
005A 900000      R     MOV     DPTR,#convert
005D EE                MOV     A,R6
005E F0                MOVX    @DPTR,A
005F A3                INC     DPTR
0060 EF                MOV     A,R7
0061 F0                MOVX    @DPTR,A
                                           ; SOURCE LINE # 1024
0062 900000      R     MOV     DPTR,#convert
0065 E0                MOVX    A,@DPTR
0066 FE                MOV     R6,A
0067 A3                INC     DPTR
0068 E0                MOVX    A,@DPTR
0069 FF                MOV     R7,A
006A AA06              MOV     R2,AR6
006C A907              MOV     R1,AR7
006E 7B01              MOV     R3,#01H
0070 120000      E     LCALL   _cyread16_nodpx
0073 900000      R     MOV     DPTR,#source
0076 120000      E     LCALL   ?C?PLDXDATA
0079 EE                MOV     A,R6
007A 8FF0              MOV     B,R7
007C 120000      E     LCALL   ?C?ISTPTR
                                           ; SOURCE LINE # 1025
007F         ?C0055:
                                           ; SOURCE LINE # 1028
007F 7B00              MOV     R3,#00H
0081 7A00              MOV     R2,#00H
0083 7900              MOV     R1,#00H
0085 C003              PUSH    AR3
0087 C002              PUSH    AR2
0089 C001              PUSH    AR1
008B 900000      R     MOV     DPTR,#destination
008E 120000      E     LCALL   ?C?PLDXDATA
0091 D082              POP     DPL
0093 D083              POP     DPH
0095 D0E0              POP     ACC
0097 6B                XRL     A,R3
0098 7008              JNZ     ?C0070
009A E9                MOV     A,R1
009B 6582              XRL     A,DPL
009D 7003              JNZ     ?C0070
009F EA                MOV     A,R2
00A0 6583              XRL     A,DPH
00A2         ?C0070:
00A2 602B              JZ      ?C0056
                                           ; SOURCE LINE # 1029
                                           ; SOURCE LINE # 1031
00A4 900000      R     MOV     DPTR,#tdHandle
00A7 E0                MOVX    A,@DPTR
C51 COMPILER V9.03   CYDMAC                                                                07/02/2012 19:47:02 PAGE 47  

00A8 FF                MOV     R7,A
00A9 7E08              MOV     R6,#08H
00AB EF                MOV     A,R7
00AC 8EF0              MOV     B,R6
00AE A4                MUL     AB
00AF FF                MOV     R7,A
00B0 AEF0              MOV     R6,B
00B2 EF                MOV     A,R7
00B3 2406              ADD     A,#06H
00B5 FF                MOV     R7,A
00B6 EE                MOV     A,R6
00B7 3478              ADDC    A,#078H
00B9 FE                MOV     R6,A
00BA AA06              MOV     R2,AR6
00BC A907              MOV     R1,AR7
00BE 7B01              MOV     R3,#01H
00C0 120000      E     LCALL   _cyread16_nodpx
00C3 900000      R     MOV     DPTR,#destination
00C6 120000      E     LCALL   ?C?PLDXDATA
00C9 EE                MOV     A,R6
00CA 8FF0              MOV     B,R7
00CC 120000      E     LCALL   ?C?ISTPTR
                                           ; SOURCE LINE # 1032
00CF         ?C0056:
                                           ; SOURCE LINE # 1034
00CF 900000      R     MOV     DPTR,#status
00D2 E4                CLR     A
00D3 F0                MOVX    @DPTR,A
                                           ; SOURCE LINE # 1035
00D4         ?C0054:
                                           ; SOURCE LINE # 1037
00D4 900000      R     MOV     DPTR,#status
00D7 E0                MOVX    A,@DPTR
00D8 FF                MOV     R7,A
                                           ; SOURCE LINE # 1038
00D9         ?C0057:
00D9 22                RET     
             ; FUNCTION _CyDmaTdGetAddress (END)

             ; FUNCTION _CyDmaChRoundRobin (BEGIN)
                                           ; SOURCE LINE # 1062
0000 900000      R     MOV     DPTR,#chHandle
0003 EF                MOV     A,R7
0004 F0                MOVX    @DPTR,A
0005 900000      R     MOV     DPTR,#enableRR
0008 ED                MOV     A,R5
0009 F0                MOVX    @DPTR,A
                                           ; SOURCE LINE # 1063
                                           ; SOURCE LINE # 1064
000A 900000      R     MOV     DPTR,#status
000D 7401              MOV     A,#01H
000F F0                MOVX    @DPTR,A
                                           ; SOURCE LINE # 1066
0010 900000      R     MOV     DPTR,#chHandle
0013 E0                MOVX    A,@DPTR
0014 FF                MOV     R7,A
0015 EF                MOV     A,R7
0016 C3                CLR     C
0017 9418              SUBB    A,#018H
0019 503C              JNC     ?C0058
                                           ; SOURCE LINE # 1067
                                           ; SOURCE LINE # 1068
C51 COMPILER V9.03   CYDMAC                                                                07/02/2012 19:47:02 PAGE 48  

001B 900000      R     MOV     DPTR,#chHandle
001E E0                MOVX    A,@DPTR
001F FF                MOV     R7,A
0020 75F010            MOV     B,#010H
0023 EF                MOV     A,R7
0024 907010            MOV     DPTR,#07010H
0027 120000      E     LCALL   ?C?OFFXADD
002A E0                MOVX    A,@DPTR
002B FF                MOV     R7,A
002C EF                MOV     A,R7
002D 54EF              ANL     A,#0EFH
002F FF                MOV     R7,A
0030 900000      R     MOV     DPTR,#enableRR
0033 E0                MOVX    A,@DPTR
0034 FE                MOV     R6,A
0035 EE                MOV     A,R6
0036 6004              JZ      ?C0059
0038 7E10              MOV     R6,#010H
003A 8002              SJMP    ?C0060
003C         ?C0059:
003C 7EEF              MOV     R6,#0EFH
003E         ?C0060:
003E EF                MOV     A,R7
003F 4E                ORL     A,R6
0040 FF                MOV     R7,A
0041 900000      R     MOV     DPTR,#chHandle
0044 E0                MOVX    A,@DPTR
0045 FE                MOV     R6,A
0046 75F010            MOV     B,#010H
0049 EE                MOV     A,R6
004A 907010            MOV     DPTR,#07010H
004D 120000      E     LCALL   ?C?OFFXADD
0050 EF                MOV     A,R7
0051 F0                MOVX    @DPTR,A
                                           ; SOURCE LINE # 1072
0052 900000      R     MOV     DPTR,#status
0055 E4                CLR     A
0056 F0                MOVX    @DPTR,A
                                           ; SOURCE LINE # 1073
0057         ?C0058:
                                           ; SOURCE LINE # 1075
0057 900000      R     MOV     DPTR,#status
005A E0                MOVX    A,@DPTR
005B FF                MOV     R7,A
                                           ; SOURCE LINE # 1076
005C         ?C0061:
005C 22                RET     
             ; FUNCTION _CyDmaChRoundRobin (END)



MODULE INFORMATION:   STATIC OVERLAYABLE
   CODE SIZE        =   2453    ----
   CONSTANT SIZE    =   ----    ----
   XDATA SIZE       =    105    ----
   PDATA SIZE       =   ----    ----
   DATA SIZE        =   ----    ----
   IDATA SIZE       =   ----    ----
   BIT SIZE         =   ----    ----
   EDATA SIZE       =   ----    ----
   HDATA SIZE       =   ----    ----
   XDATA CONST SIZE =   ----    ----
C51 COMPILER V9.03   CYDMAC                                                                07/02/2012 19:47:02 PAGE 49  

   FAR CONST SIZE   =   ----    ----
END OF MODULE INFORMATION.


C51 COMPILATION COMPLETE.  0 WARNING(S),  0 ERROR(S)
